	.text
	.file	"simple_nn.cu"
	.section	.text.startup,"ax",@progbits
	.p2align	4, 0x90                         # -- Begin function __cxx_global_var_init
	.type	__cxx_global_var_init,@function
__cxx_global_var_init:                  # @__cxx_global_var_init
	.cfi_startproc
# %bb.0:
	pushq	%rbp
	.cfi_def_cfa_offset 16
	.cfi_offset %rbp, -16
	movq	%rsp, %rbp
	.cfi_def_cfa_register %rbp
	leaq	_ZStL8__ioinit(%rip), %rdi
	callq	_ZNSt8ios_base4InitC1Ev@PLT
	movq	_ZNSt8ios_base4InitD1Ev@GOTPCREL(%rip), %rdi
	leaq	_ZStL8__ioinit(%rip), %rsi
	leaq	__dso_handle(%rip), %rdx
	callq	__cxa_atexit@PLT
	popq	%rbp
	.cfi_def_cfa %rsp, 8
	retq
.Lfunc_end0:
	.size	__cxx_global_var_init, .Lfunc_end0-__cxx_global_var_init
	.cfi_endproc
                                        # -- End function
	.section	.text._ZNK3MPI8Datatype17Create_contiguousEi,"axG",@progbits,_ZNK3MPI8Datatype17Create_contiguousEi,comdat
	.weak	_ZNK3MPI8Datatype17Create_contiguousEi # -- Begin function _ZNK3MPI8Datatype17Create_contiguousEi
	.p2align	4, 0x90
	.type	_ZNK3MPI8Datatype17Create_contiguousEi,@function
_ZNK3MPI8Datatype17Create_contiguousEi: # @_ZNK3MPI8Datatype17Create_contiguousEi
	.cfi_startproc
# %bb.0:
	pushq	%rbp
	.cfi_def_cfa_offset 16
	.cfi_offset %rbp, -16
	movq	%rsp, %rbp
	.cfi_def_cfa_register %rbp
	subq	$48, %rsp
	movq	%rdi, -48(%rbp)                 # 8-byte Spill
	movq	%rdi, %rax
	movq	%rax, -40(%rbp)                 # 8-byte Spill
	movq	%rdi, -8(%rbp)
	movq	%rsi, -16(%rbp)
	movl	%edx, -20(%rbp)
	movq	-16(%rbp), %rax
	movl	-20(%rbp), %edi
	movq	8(%rax), %rsi
	leaq	-32(%rbp), %rdx
	callq	MPI_Type_contiguous@PLT
	movq	-48(%rbp), %rdi                 # 8-byte Reload
	movq	-32(%rbp), %rsi
	callq	_ZN3MPI8DatatypeC2EP15ompi_datatype_t
	movq	-40(%rbp), %rax                 # 8-byte Reload
	addq	$48, %rsp
	popq	%rbp
	.cfi_def_cfa %rsp, 8
	retq
.Lfunc_end1:
	.size	_ZNK3MPI8Datatype17Create_contiguousEi, .Lfunc_end1-_ZNK3MPI8Datatype17Create_contiguousEi
	.cfi_endproc
                                        # -- End function
	.section	.text._ZN3MPI8DatatypeC2EP15ompi_datatype_t,"axG",@progbits,_ZN3MPI8DatatypeC2EP15ompi_datatype_t,comdat
	.weak	_ZN3MPI8DatatypeC2EP15ompi_datatype_t # -- Begin function _ZN3MPI8DatatypeC2EP15ompi_datatype_t
	.p2align	4, 0x90
	.type	_ZN3MPI8DatatypeC2EP15ompi_datatype_t,@function
_ZN3MPI8DatatypeC2EP15ompi_datatype_t:  # @_ZN3MPI8DatatypeC2EP15ompi_datatype_t
	.cfi_startproc
# %bb.0:
	pushq	%rbp
	.cfi_def_cfa_offset 16
	.cfi_offset %rbp, -16
	movq	%rsp, %rbp
	.cfi_def_cfa_register %rbp
	movq	%rdi, -8(%rbp)
	movq	%rsi, -16(%rbp)
	movq	-8(%rbp), %rax
	leaq	_ZTVN3MPI8DatatypeE(%rip), %rcx
	addq	$16, %rcx
	movq	%rcx, (%rax)
	movq	-16(%rbp), %rcx
	movq	%rcx, 8(%rax)
	popq	%rbp
	.cfi_def_cfa %rsp, 8
	retq
.Lfunc_end2:
	.size	_ZN3MPI8DatatypeC2EP15ompi_datatype_t, .Lfunc_end2-_ZN3MPI8DatatypeC2EP15ompi_datatype_t
	.cfi_endproc
                                        # -- End function
	.section	.text._ZN3MPI7Request4WaitERNS_6StatusE,"axG",@progbits,_ZN3MPI7Request4WaitERNS_6StatusE,comdat
	.weak	_ZN3MPI7Request4WaitERNS_6StatusE # -- Begin function _ZN3MPI7Request4WaitERNS_6StatusE
	.p2align	4, 0x90
	.type	_ZN3MPI7Request4WaitERNS_6StatusE,@function
_ZN3MPI7Request4WaitERNS_6StatusE:      # @_ZN3MPI7Request4WaitERNS_6StatusE
	.cfi_startproc
# %bb.0:
	pushq	%rbp
	.cfi_def_cfa_offset 16
	.cfi_offset %rbp, -16
	movq	%rsp, %rbp
	.cfi_def_cfa_register %rbp
	subq	$16, %rsp
	movq	%rdi, -8(%rbp)
	movq	%rsi, -16(%rbp)
	movq	-8(%rbp), %rdi
	addq	$8, %rdi
	movq	-16(%rbp), %rsi
	addq	$8, %rsi
	callq	MPI_Wait@PLT
	addq	$16, %rsp
	popq	%rbp
	.cfi_def_cfa %rsp, 8
	retq
.Lfunc_end3:
	.size	_ZN3MPI7Request4WaitERNS_6StatusE, .Lfunc_end3-_ZN3MPI7Request4WaitERNS_6StatusE
	.cfi_endproc
                                        # -- End function
	.section	.text._ZN3MPI8Prequest5StartEv,"axG",@progbits,_ZN3MPI8Prequest5StartEv,comdat
	.weak	_ZN3MPI8Prequest5StartEv        # -- Begin function _ZN3MPI8Prequest5StartEv
	.p2align	4, 0x90
	.type	_ZN3MPI8Prequest5StartEv,@function
_ZN3MPI8Prequest5StartEv:               # @_ZN3MPI8Prequest5StartEv
	.cfi_startproc
# %bb.0:
	pushq	%rbp
	.cfi_def_cfa_offset 16
	.cfi_offset %rbp, -16
	movq	%rsp, %rbp
	.cfi_def_cfa_register %rbp
	subq	$16, %rsp
	movq	%rdi, -8(%rbp)
	movq	-8(%rbp), %rdi
	addq	$8, %rdi
	callq	MPI_Start@PLT
	addq	$16, %rsp
	popq	%rbp
	.cfi_def_cfa %rsp, 8
	retq
.Lfunc_end4:
	.size	_ZN3MPI8Prequest5StartEv, .Lfunc_end4-_ZN3MPI8Prequest5StartEv
	.cfi_endproc
                                        # -- End function
	.section	.text._ZN3MPI8Grequest8CompleteEv,"axG",@progbits,_ZN3MPI8Grequest8CompleteEv,comdat
	.weak	_ZN3MPI8Grequest8CompleteEv     # -- Begin function _ZN3MPI8Grequest8CompleteEv
	.p2align	4, 0x90
	.type	_ZN3MPI8Grequest8CompleteEv,@function
_ZN3MPI8Grequest8CompleteEv:            # @_ZN3MPI8Grequest8CompleteEv
	.cfi_startproc
# %bb.0:
	pushq	%rbp
	.cfi_def_cfa_offset 16
	.cfi_offset %rbp, -16
	movq	%rsp, %rbp
	.cfi_def_cfa_register %rbp
	subq	$16, %rsp
	movq	%rdi, -8(%rbp)
	movq	-8(%rbp), %rax
	movq	8(%rax), %rdi
	callq	MPI_Grequest_complete@PLT
	addq	$16, %rsp
	popq	%rbp
	.cfi_def_cfa %rsp, 8
	retq
.Lfunc_end5:
	.size	_ZN3MPI8Grequest8CompleteEv, .Lfunc_end5-_ZN3MPI8Grequest8CompleteEv
	.cfi_endproc
                                        # -- End function
	.section	.text._ZNK3MPI4Comm4SendEPKviRKNS_8DatatypeEii,"axG",@progbits,_ZNK3MPI4Comm4SendEPKviRKNS_8DatatypeEii,comdat
	.weak	_ZNK3MPI4Comm4SendEPKviRKNS_8DatatypeEii # -- Begin function _ZNK3MPI4Comm4SendEPKviRKNS_8DatatypeEii
	.p2align	4, 0x90
	.type	_ZNK3MPI4Comm4SendEPKviRKNS_8DatatypeEii,@function
_ZNK3MPI4Comm4SendEPKviRKNS_8DatatypeEii: # @_ZNK3MPI4Comm4SendEPKviRKNS_8DatatypeEii
	.cfi_startproc
# %bb.0:
	pushq	%rbp
	.cfi_def_cfa_offset 16
	.cfi_offset %rbp, -16
	movq	%rsp, %rbp
	.cfi_def_cfa_register %rbp
	subq	$64, %rsp
	movq	%rdi, -8(%rbp)
	movq	%rsi, -16(%rbp)
	movl	%edx, -20(%rbp)
	movq	%rcx, -32(%rbp)
	movl	%r8d, -36(%rbp)
	movl	%r9d, -40(%rbp)
	movq	-8(%rbp), %rax
	movq	%rax, -48(%rbp)                 # 8-byte Spill
	movq	-16(%rbp), %rax
	movq	%rax, -64(%rbp)                 # 8-byte Spill
	movl	-20(%rbp), %eax
	movl	%eax, -52(%rbp)                 # 4-byte Spill
	movq	-32(%rbp), %rdi
	callq	_ZNK3MPI8DatatypecvP15ompi_datatype_tEv
	movq	-64(%rbp), %rdi                 # 8-byte Reload
	movl	-52(%rbp), %esi                 # 4-byte Reload
	movq	%rax, %rdx
	movq	-48(%rbp), %rax                 # 8-byte Reload
	movl	-36(%rbp), %ecx
	movl	-40(%rbp), %r8d
	movq	8(%rax), %r9
	callq	MPI_Send@PLT
	addq	$64, %rsp
	popq	%rbp
	.cfi_def_cfa %rsp, 8
	retq
.Lfunc_end6:
	.size	_ZNK3MPI4Comm4SendEPKviRKNS_8DatatypeEii, .Lfunc_end6-_ZNK3MPI4Comm4SendEPKviRKNS_8DatatypeEii
	.cfi_endproc
                                        # -- End function
	.section	.text._ZNK3MPI8DatatypecvP15ompi_datatype_tEv,"axG",@progbits,_ZNK3MPI8DatatypecvP15ompi_datatype_tEv,comdat
	.weak	_ZNK3MPI8DatatypecvP15ompi_datatype_tEv # -- Begin function _ZNK3MPI8DatatypecvP15ompi_datatype_tEv
	.p2align	4, 0x90
	.type	_ZNK3MPI8DatatypecvP15ompi_datatype_tEv,@function
_ZNK3MPI8DatatypecvP15ompi_datatype_tEv: # @_ZNK3MPI8DatatypecvP15ompi_datatype_tEv
	.cfi_startproc
# %bb.0:
	pushq	%rbp
	.cfi_def_cfa_offset 16
	.cfi_offset %rbp, -16
	movq	%rsp, %rbp
	.cfi_def_cfa_register %rbp
	movq	%rdi, -8(%rbp)
	movq	-8(%rbp), %rax
	movq	8(%rax), %rax
	popq	%rbp
	.cfi_def_cfa %rsp, 8
	retq
.Lfunc_end7:
	.size	_ZNK3MPI8DatatypecvP15ompi_datatype_tEv, .Lfunc_end7-_ZNK3MPI8DatatypecvP15ompi_datatype_tEv
	.cfi_endproc
                                        # -- End function
	.section	.text._ZNK3MPI9Intracomm4ScanEPKvPviRKNS_8DatatypeERKNS_2OpE,"axG",@progbits,_ZNK3MPI9Intracomm4ScanEPKvPviRKNS_8DatatypeERKNS_2OpE,comdat
	.weak	_ZNK3MPI9Intracomm4ScanEPKvPviRKNS_8DatatypeERKNS_2OpE # -- Begin function _ZNK3MPI9Intracomm4ScanEPKvPviRKNS_8DatatypeERKNS_2OpE
	.p2align	4, 0x90
	.type	_ZNK3MPI9Intracomm4ScanEPKvPviRKNS_8DatatypeERKNS_2OpE,@function
_ZNK3MPI9Intracomm4ScanEPKvPviRKNS_8DatatypeERKNS_2OpE: # @_ZNK3MPI9Intracomm4ScanEPKvPviRKNS_8DatatypeERKNS_2OpE
	.cfi_startproc
# %bb.0:
	pushq	%rbp
	.cfi_def_cfa_offset 16
	.cfi_offset %rbp, -16
	movq	%rsp, %rbp
	.cfi_def_cfa_register %rbp
	subq	$96, %rsp
	movq	%rdi, -8(%rbp)
	movq	%rsi, -16(%rbp)
	movq	%rdx, -24(%rbp)
	movl	%ecx, -28(%rbp)
	movq	%r8, -40(%rbp)
	movq	%r9, -48(%rbp)
	movq	-8(%rbp), %rax
	movq	%rax, -56(%rbp)                 # 8-byte Spill
	movq	-16(%rbp), %rax
	movq	%rax, -88(%rbp)                 # 8-byte Spill
	movq	-24(%rbp), %rax
	movq	%rax, -80(%rbp)                 # 8-byte Spill
	movl	-28(%rbp), %eax
	movl	%eax, -68(%rbp)                 # 4-byte Spill
	movq	-40(%rbp), %rdi
	callq	_ZNK3MPI8DatatypecvP15ompi_datatype_tEv
	movq	%rax, -64(%rbp)                 # 8-byte Spill
	movq	-48(%rbp), %rdi
	callq	_ZNK3MPI2OpcvP9ompi_op_tEv
	movq	-88(%rbp), %rdi                 # 8-byte Reload
	movq	-80(%rbp), %rsi                 # 8-byte Reload
	movl	-68(%rbp), %edx                 # 4-byte Reload
	movq	-64(%rbp), %rcx                 # 8-byte Reload
	movq	%rax, %r8
	movq	-56(%rbp), %rax                 # 8-byte Reload
	movq	8(%rax), %r9
	callq	MPI_Scan@PLT
	addq	$96, %rsp
	popq	%rbp
	.cfi_def_cfa %rsp, 8
	retq
.Lfunc_end8:
	.size	_ZNK3MPI9Intracomm4ScanEPKvPviRKNS_8DatatypeERKNS_2OpE, .Lfunc_end8-_ZNK3MPI9Intracomm4ScanEPKvPviRKNS_8DatatypeERKNS_2OpE
	.cfi_endproc
                                        # -- End function
	.section	.text._ZNK3MPI2OpcvP9ompi_op_tEv,"axG",@progbits,_ZNK3MPI2OpcvP9ompi_op_tEv,comdat
	.weak	_ZNK3MPI2OpcvP9ompi_op_tEv      # -- Begin function _ZNK3MPI2OpcvP9ompi_op_tEv
	.p2align	4, 0x90
	.type	_ZNK3MPI2OpcvP9ompi_op_tEv,@function
_ZNK3MPI2OpcvP9ompi_op_tEv:             # @_ZNK3MPI2OpcvP9ompi_op_tEv
	.cfi_startproc
# %bb.0:
	pushq	%rbp
	.cfi_def_cfa_offset 16
	.cfi_offset %rbp, -16
	movq	%rsp, %rbp
	.cfi_def_cfa_register %rbp
	movq	%rdi, -8(%rbp)
	movq	-8(%rbp), %rax
	movq	8(%rax), %rax
	popq	%rbp
	.cfi_def_cfa %rsp, 8
	retq
.Lfunc_end9:
	.size	_ZNK3MPI2OpcvP9ompi_op_tEv, .Lfunc_end9-_ZNK3MPI2OpcvP9ompi_op_tEv
	.cfi_endproc
                                        # -- End function
	.section	.text._ZNK3MPI8Cartcomm5CloneEv,"axG",@progbits,_ZNK3MPI8Cartcomm5CloneEv,comdat
	.weak	_ZNK3MPI8Cartcomm5CloneEv       # -- Begin function _ZNK3MPI8Cartcomm5CloneEv
	.p2align	4, 0x90
	.type	_ZNK3MPI8Cartcomm5CloneEv,@function
_ZNK3MPI8Cartcomm5CloneEv:              # @_ZNK3MPI8Cartcomm5CloneEv
.Lfunc_begin0:
	.cfi_startproc
	.cfi_personality 155, DW.ref.__gxx_personality_v0
	.cfi_lsda 27, .Lexception0
# %bb.0:
	pushq	%rbp
	.cfi_def_cfa_offset 16
	.cfi_offset %rbp, -16
	movq	%rsp, %rbp
	.cfi_def_cfa_register %rbp
	subq	$64, %rsp
	movq	%rdi, -8(%rbp)
	movq	-8(%rbp), %rax
	movq	8(%rax), %rdi
	leaq	-16(%rbp), %rsi
	movq	%rsi, -64(%rbp)                 # 8-byte Spill
	callq	MPI_Comm_dup@PLT
	movl	$16, %edi
	callq	_Znwm@PLT
	movq	-64(%rbp), %rsi                 # 8-byte Reload
	movq	%rax, %rdi
	movq	%rdi, %rax
	movq	%rax, -56(%rbp)                 # 8-byte Spill
	movq	%rdi, %rax
	movq	%rax, -48(%rbp)                 # 8-byte Spill
.Ltmp0:
	callq	_ZN3MPI8CartcommC2ERKP19ompi_communicator_t
.Ltmp1:
	jmp	.LBB10_1
.LBB10_1:
	movq	-48(%rbp), %rax                 # 8-byte Reload
	movq	%rax, -24(%rbp)
	movq	-24(%rbp), %rax
	addq	$64, %rsp
	popq	%rbp
	.cfi_def_cfa %rsp, 8
	retq
.LBB10_2:
	.cfi_def_cfa %rbp, 16
.Ltmp2:
	movq	-56(%rbp), %rdi                 # 8-byte Reload
	movq	%rax, %rcx
	movl	%edx, %eax
	movq	%rcx, -32(%rbp)
	movl	%eax, -36(%rbp)
	callq	_ZdlPv@PLT
# %bb.3:
	movq	-32(%rbp), %rdi
	callq	_Unwind_Resume@PLT
.Lfunc_end10:
	.size	_ZNK3MPI8Cartcomm5CloneEv, .Lfunc_end10-_ZNK3MPI8Cartcomm5CloneEv
	.cfi_endproc
	.section	.gcc_except_table._ZNK3MPI8Cartcomm5CloneEv,"aG",@progbits,_ZNK3MPI8Cartcomm5CloneEv,comdat
	.p2align	2
GCC_except_table10:
.Lexception0:
	.byte	255                             # @LPStart Encoding = omit
	.byte	255                             # @TType Encoding = omit
	.byte	1                               # Call site Encoding = uleb128
	.uleb128 .Lcst_end0-.Lcst_begin0
.Lcst_begin0:
	.uleb128 .Lfunc_begin0-.Lfunc_begin0    # >> Call Site 1 <<
	.uleb128 .Ltmp0-.Lfunc_begin0           #   Call between .Lfunc_begin0 and .Ltmp0
	.byte	0                               #     has no landing pad
	.byte	0                               #   On action: cleanup
	.uleb128 .Ltmp0-.Lfunc_begin0           # >> Call Site 2 <<
	.uleb128 .Ltmp1-.Ltmp0                  #   Call between .Ltmp0 and .Ltmp1
	.uleb128 .Ltmp2-.Lfunc_begin0           #     jumps to .Ltmp2
	.byte	0                               #   On action: cleanup
	.uleb128 .Ltmp1-.Lfunc_begin0           # >> Call Site 3 <<
	.uleb128 .Lfunc_end10-.Ltmp1            #   Call between .Ltmp1 and .Lfunc_end10
	.byte	0                               #     has no landing pad
	.byte	0                               #   On action: cleanup
.Lcst_end0:
	.p2align	2
                                        # -- End function
	.section	.text._ZN3MPI8CartcommC2ERKP19ompi_communicator_t,"axG",@progbits,_ZN3MPI8CartcommC2ERKP19ompi_communicator_t,comdat
	.weak	_ZN3MPI8CartcommC2ERKP19ompi_communicator_t # -- Begin function _ZN3MPI8CartcommC2ERKP19ompi_communicator_t
	.p2align	4, 0x90
	.type	_ZN3MPI8CartcommC2ERKP19ompi_communicator_t,@function
_ZN3MPI8CartcommC2ERKP19ompi_communicator_t: # @_ZN3MPI8CartcommC2ERKP19ompi_communicator_t
.Lfunc_begin1:
	.cfi_startproc
	.cfi_personality 155, DW.ref.__gxx_personality_v0
	.cfi_lsda 27, .Lexception1
# %bb.0:
	pushq	%rbp
	.cfi_def_cfa_offset 16
	.cfi_offset %rbp, -16
	movq	%rsp, %rbp
	.cfi_def_cfa_register %rbp
	subq	$48, %rsp
	movq	%rdi, -8(%rbp)
	movq	%rsi, -16(%rbp)
	movq	-8(%rbp), %rdi
	movq	%rdi, -48(%rbp)                 # 8-byte Spill
	callq	_ZN3MPI9IntracommC2Ev
	movq	-48(%rbp), %rax                 # 8-byte Reload
	leaq	_ZTVN3MPI8CartcommE+16(%rip), %rcx
	movq	%rcx, (%rax)
	movl	$0, -20(%rbp)
.Ltmp3:
	callq	_ZN3MPI14Is_initializedEv
.Ltmp4:
	movb	%al, -37(%rbp)                  # 1-byte Spill
	jmp	.LBB11_1
.LBB11_1:
	movb	-37(%rbp), %al                  # 1-byte Reload
	testb	$1, %al
	jne	.LBB11_2
	jmp	.LBB11_9
.LBB11_2:
	movq	-16(%rbp), %rax
	movq	ompi_mpi_comm_null@GOTPCREL(%rip), %rcx
	cmpq	%rcx, (%rax)
	je	.LBB11_9
# %bb.3:
	movq	-16(%rbp), %rax
	movq	(%rax), %rdi
.Ltmp5:
	leaq	-20(%rbp), %rsi
	callq	MPI_Topo_test@PLT
.Ltmp6:
	jmp	.LBB11_4
.LBB11_4:
	cmpl	$1, -20(%rbp)
	jne	.LBB11_7
# %bb.5:
	movq	-48(%rbp), %rax                 # 8-byte Reload
	movq	-16(%rbp), %rcx
	movq	(%rcx), %rcx
	movq	%rcx, 8(%rax)
	jmp	.LBB11_8
.LBB11_6:
.Ltmp7:
	movq	-48(%rbp), %rdi                 # 8-byte Reload
	movq	%rax, %rcx
	movl	%edx, %eax
	movq	%rcx, -32(%rbp)
	movl	%eax, -36(%rbp)
	callq	_ZN3MPI9IntracommD2Ev
	jmp	.LBB11_11
.LBB11_7:
	movq	-48(%rbp), %rax                 # 8-byte Reload
	movq	ompi_mpi_comm_null@GOTPCREL(%rip), %rcx
	movq	%rcx, 8(%rax)
.LBB11_8:
	jmp	.LBB11_10
.LBB11_9:
	movq	-48(%rbp), %rax                 # 8-byte Reload
	movq	-16(%rbp), %rcx
	movq	(%rcx), %rcx
	movq	%rcx, 8(%rax)
.LBB11_10:
	addq	$48, %rsp
	popq	%rbp
	.cfi_def_cfa %rsp, 8
	retq
.LBB11_11:
	.cfi_def_cfa %rbp, 16
	movq	-32(%rbp), %rdi
	callq	_Unwind_Resume@PLT
.Lfunc_end11:
	.size	_ZN3MPI8CartcommC2ERKP19ompi_communicator_t, .Lfunc_end11-_ZN3MPI8CartcommC2ERKP19ompi_communicator_t
	.cfi_endproc
	.section	.gcc_except_table._ZN3MPI8CartcommC2ERKP19ompi_communicator_t,"aG",@progbits,_ZN3MPI8CartcommC2ERKP19ompi_communicator_t,comdat
	.p2align	2
GCC_except_table11:
.Lexception1:
	.byte	255                             # @LPStart Encoding = omit
	.byte	255                             # @TType Encoding = omit
	.byte	1                               # Call site Encoding = uleb128
	.uleb128 .Lcst_end1-.Lcst_begin1
.Lcst_begin1:
	.uleb128 .Lfunc_begin1-.Lfunc_begin1    # >> Call Site 1 <<
	.uleb128 .Ltmp3-.Lfunc_begin1           #   Call between .Lfunc_begin1 and .Ltmp3
	.byte	0                               #     has no landing pad
	.byte	0                               #   On action: cleanup
	.uleb128 .Ltmp3-.Lfunc_begin1           # >> Call Site 2 <<
	.uleb128 .Ltmp6-.Ltmp3                  #   Call between .Ltmp3 and .Ltmp6
	.uleb128 .Ltmp7-.Lfunc_begin1           #     jumps to .Ltmp7
	.byte	0                               #   On action: cleanup
	.uleb128 .Ltmp6-.Lfunc_begin1           # >> Call Site 3 <<
	.uleb128 .Lfunc_end11-.Ltmp6            #   Call between .Ltmp6 and .Lfunc_end11
	.byte	0                               #     has no landing pad
	.byte	0                               #   On action: cleanup
.Lcst_end1:
	.p2align	2
                                        # -- End function
	.section	.text._ZNK3MPI9Graphcomm5CloneEv,"axG",@progbits,_ZNK3MPI9Graphcomm5CloneEv,comdat
	.weak	_ZNK3MPI9Graphcomm5CloneEv      # -- Begin function _ZNK3MPI9Graphcomm5CloneEv
	.p2align	4, 0x90
	.type	_ZNK3MPI9Graphcomm5CloneEv,@function
_ZNK3MPI9Graphcomm5CloneEv:             # @_ZNK3MPI9Graphcomm5CloneEv
.Lfunc_begin2:
	.cfi_startproc
	.cfi_personality 155, DW.ref.__gxx_personality_v0
	.cfi_lsda 27, .Lexception2
# %bb.0:
	pushq	%rbp
	.cfi_def_cfa_offset 16
	.cfi_offset %rbp, -16
	movq	%rsp, %rbp
	.cfi_def_cfa_register %rbp
	subq	$64, %rsp
	movq	%rdi, -8(%rbp)
	movq	-8(%rbp), %rax
	movq	8(%rax), %rdi
	leaq	-16(%rbp), %rsi
	movq	%rsi, -64(%rbp)                 # 8-byte Spill
	callq	MPI_Comm_dup@PLT
	movl	$16, %edi
	callq	_Znwm@PLT
	movq	-64(%rbp), %rsi                 # 8-byte Reload
	movq	%rax, %rdi
	movq	%rdi, %rax
	movq	%rax, -56(%rbp)                 # 8-byte Spill
	movq	%rdi, %rax
	movq	%rax, -48(%rbp)                 # 8-byte Spill
.Ltmp8:
	callq	_ZN3MPI9GraphcommC2ERKP19ompi_communicator_t
.Ltmp9:
	jmp	.LBB12_1
.LBB12_1:
	movq	-48(%rbp), %rax                 # 8-byte Reload
	movq	%rax, -24(%rbp)
	movq	-24(%rbp), %rax
	addq	$64, %rsp
	popq	%rbp
	.cfi_def_cfa %rsp, 8
	retq
.LBB12_2:
	.cfi_def_cfa %rbp, 16
.Ltmp10:
	movq	-56(%rbp), %rdi                 # 8-byte Reload
	movq	%rax, %rcx
	movl	%edx, %eax
	movq	%rcx, -32(%rbp)
	movl	%eax, -36(%rbp)
	callq	_ZdlPv@PLT
# %bb.3:
	movq	-32(%rbp), %rdi
	callq	_Unwind_Resume@PLT
.Lfunc_end12:
	.size	_ZNK3MPI9Graphcomm5CloneEv, .Lfunc_end12-_ZNK3MPI9Graphcomm5CloneEv
	.cfi_endproc
	.section	.gcc_except_table._ZNK3MPI9Graphcomm5CloneEv,"aG",@progbits,_ZNK3MPI9Graphcomm5CloneEv,comdat
	.p2align	2
GCC_except_table12:
.Lexception2:
	.byte	255                             # @LPStart Encoding = omit
	.byte	255                             # @TType Encoding = omit
	.byte	1                               # Call site Encoding = uleb128
	.uleb128 .Lcst_end2-.Lcst_begin2
.Lcst_begin2:
	.uleb128 .Lfunc_begin2-.Lfunc_begin2    # >> Call Site 1 <<
	.uleb128 .Ltmp8-.Lfunc_begin2           #   Call between .Lfunc_begin2 and .Ltmp8
	.byte	0                               #     has no landing pad
	.byte	0                               #   On action: cleanup
	.uleb128 .Ltmp8-.Lfunc_begin2           # >> Call Site 2 <<
	.uleb128 .Ltmp9-.Ltmp8                  #   Call between .Ltmp8 and .Ltmp9
	.uleb128 .Ltmp10-.Lfunc_begin2          #     jumps to .Ltmp10
	.byte	0                               #   On action: cleanup
	.uleb128 .Ltmp9-.Lfunc_begin2           # >> Call Site 3 <<
	.uleb128 .Lfunc_end12-.Ltmp9            #   Call between .Ltmp9 and .Lfunc_end12
	.byte	0                               #     has no landing pad
	.byte	0                               #   On action: cleanup
.Lcst_end2:
	.p2align	2
                                        # -- End function
	.section	.text._ZN3MPI9GraphcommC2ERKP19ompi_communicator_t,"axG",@progbits,_ZN3MPI9GraphcommC2ERKP19ompi_communicator_t,comdat
	.weak	_ZN3MPI9GraphcommC2ERKP19ompi_communicator_t # -- Begin function _ZN3MPI9GraphcommC2ERKP19ompi_communicator_t
	.p2align	4, 0x90
	.type	_ZN3MPI9GraphcommC2ERKP19ompi_communicator_t,@function
_ZN3MPI9GraphcommC2ERKP19ompi_communicator_t: # @_ZN3MPI9GraphcommC2ERKP19ompi_communicator_t
.Lfunc_begin3:
	.cfi_startproc
	.cfi_personality 155, DW.ref.__gxx_personality_v0
	.cfi_lsda 27, .Lexception3
# %bb.0:
	pushq	%rbp
	.cfi_def_cfa_offset 16
	.cfi_offset %rbp, -16
	movq	%rsp, %rbp
	.cfi_def_cfa_register %rbp
	subq	$48, %rsp
	movq	%rdi, -8(%rbp)
	movq	%rsi, -16(%rbp)
	movq	-8(%rbp), %rdi
	movq	%rdi, -48(%rbp)                 # 8-byte Spill
	callq	_ZN3MPI9IntracommC2Ev
	movq	-48(%rbp), %rax                 # 8-byte Reload
	leaq	_ZTVN3MPI9GraphcommE+16(%rip), %rcx
	movq	%rcx, (%rax)
	movl	$0, -20(%rbp)
.Ltmp11:
	callq	_ZN3MPI14Is_initializedEv
.Ltmp12:
	movb	%al, -37(%rbp)                  # 1-byte Spill
	jmp	.LBB13_1
.LBB13_1:
	movb	-37(%rbp), %al                  # 1-byte Reload
	testb	$1, %al
	jne	.LBB13_2
	jmp	.LBB13_9
.LBB13_2:
	movq	-16(%rbp), %rax
	movq	ompi_mpi_comm_null@GOTPCREL(%rip), %rcx
	cmpq	%rcx, (%rax)
	je	.LBB13_9
# %bb.3:
	movq	-16(%rbp), %rax
	movq	(%rax), %rdi
.Ltmp13:
	leaq	-20(%rbp), %rsi
	callq	MPI_Topo_test@PLT
.Ltmp14:
	jmp	.LBB13_4
.LBB13_4:
	cmpl	$2, -20(%rbp)
	jne	.LBB13_7
# %bb.5:
	movq	-48(%rbp), %rax                 # 8-byte Reload
	movq	-16(%rbp), %rcx
	movq	(%rcx), %rcx
	movq	%rcx, 8(%rax)
	jmp	.LBB13_8
.LBB13_6:
.Ltmp15:
	movq	-48(%rbp), %rdi                 # 8-byte Reload
	movq	%rax, %rcx
	movl	%edx, %eax
	movq	%rcx, -32(%rbp)
	movl	%eax, -36(%rbp)
	callq	_ZN3MPI9IntracommD2Ev
	jmp	.LBB13_11
.LBB13_7:
	movq	-48(%rbp), %rax                 # 8-byte Reload
	movq	ompi_mpi_comm_null@GOTPCREL(%rip), %rcx
	movq	%rcx, 8(%rax)
.LBB13_8:
	jmp	.LBB13_10
.LBB13_9:
	movq	-48(%rbp), %rax                 # 8-byte Reload
	movq	-16(%rbp), %rcx
	movq	(%rcx), %rcx
	movq	%rcx, 8(%rax)
.LBB13_10:
	addq	$48, %rsp
	popq	%rbp
	.cfi_def_cfa %rsp, 8
	retq
.LBB13_11:
	.cfi_def_cfa %rbp, 16
	movq	-32(%rbp), %rdi
	callq	_Unwind_Resume@PLT
.Lfunc_end13:
	.size	_ZN3MPI9GraphcommC2ERKP19ompi_communicator_t, .Lfunc_end13-_ZN3MPI9GraphcommC2ERKP19ompi_communicator_t
	.cfi_endproc
	.section	.gcc_except_table._ZN3MPI9GraphcommC2ERKP19ompi_communicator_t,"aG",@progbits,_ZN3MPI9GraphcommC2ERKP19ompi_communicator_t,comdat
	.p2align	2
GCC_except_table13:
.Lexception3:
	.byte	255                             # @LPStart Encoding = omit
	.byte	255                             # @TType Encoding = omit
	.byte	1                               # Call site Encoding = uleb128
	.uleb128 .Lcst_end3-.Lcst_begin3
.Lcst_begin3:
	.uleb128 .Lfunc_begin3-.Lfunc_begin3    # >> Call Site 1 <<
	.uleb128 .Ltmp11-.Lfunc_begin3          #   Call between .Lfunc_begin3 and .Ltmp11
	.byte	0                               #     has no landing pad
	.byte	0                               #   On action: cleanup
	.uleb128 .Ltmp11-.Lfunc_begin3          # >> Call Site 2 <<
	.uleb128 .Ltmp14-.Ltmp11                #   Call between .Ltmp11 and .Ltmp14
	.uleb128 .Ltmp15-.Lfunc_begin3          #     jumps to .Ltmp15
	.byte	0                               #   On action: cleanup
	.uleb128 .Ltmp14-.Lfunc_begin3          # >> Call Site 3 <<
	.uleb128 .Lfunc_end13-.Ltmp14           #   Call between .Ltmp14 and .Lfunc_end13
	.byte	0                               #     has no landing pad
	.byte	0                               #   On action: cleanup
.Lcst_end3:
	.p2align	2
                                        # -- End function
	.section	.text._ZNK3MPI9Intercomm5CloneEv,"axG",@progbits,_ZNK3MPI9Intercomm5CloneEv,comdat
	.weak	_ZNK3MPI9Intercomm5CloneEv      # -- Begin function _ZNK3MPI9Intercomm5CloneEv
	.p2align	4, 0x90
	.type	_ZNK3MPI9Intercomm5CloneEv,@function
_ZNK3MPI9Intercomm5CloneEv:             # @_ZNK3MPI9Intercomm5CloneEv
.Lfunc_begin4:
	.cfi_startproc
	.cfi_personality 155, DW.ref.__gxx_personality_v0
	.cfi_lsda 27, .Lexception4
# %bb.0:
	pushq	%rbp
	.cfi_def_cfa_offset 16
	.cfi_offset %rbp, -16
	movq	%rsp, %rbp
	.cfi_def_cfa_register %rbp
	subq	$64, %rsp
	movq	%rdi, -8(%rbp)
	movq	-8(%rbp), %rax
	movq	8(%rax), %rdi
	leaq	-16(%rbp), %rsi
	callq	MPI_Comm_dup@PLT
	movl	$16, %edi
	callq	_Znwm@PLT
	movq	%rax, %rdi
	movq	%rdi, %rax
	movq	%rax, -56(%rbp)                 # 8-byte Spill
	movq	%rdi, %rax
	movq	%rax, -48(%rbp)                 # 8-byte Spill
	movq	-16(%rbp), %rsi
.Ltmp16:
	callq	_ZN3MPI9IntercommC2EP19ompi_communicator_t
.Ltmp17:
	jmp	.LBB14_1
.LBB14_1:
	movq	-48(%rbp), %rax                 # 8-byte Reload
	movq	%rax, -24(%rbp)
	movq	-24(%rbp), %rax
	addq	$64, %rsp
	popq	%rbp
	.cfi_def_cfa %rsp, 8
	retq
.LBB14_2:
	.cfi_def_cfa %rbp, 16
.Ltmp18:
	movq	-56(%rbp), %rdi                 # 8-byte Reload
	movq	%rax, %rcx
	movl	%edx, %eax
	movq	%rcx, -32(%rbp)
	movl	%eax, -36(%rbp)
	callq	_ZdlPv@PLT
# %bb.3:
	movq	-32(%rbp), %rdi
	callq	_Unwind_Resume@PLT
.Lfunc_end14:
	.size	_ZNK3MPI9Intercomm5CloneEv, .Lfunc_end14-_ZNK3MPI9Intercomm5CloneEv
	.cfi_endproc
	.section	.gcc_except_table._ZNK3MPI9Intercomm5CloneEv,"aG",@progbits,_ZNK3MPI9Intercomm5CloneEv,comdat
	.p2align	2
GCC_except_table14:
.Lexception4:
	.byte	255                             # @LPStart Encoding = omit
	.byte	255                             # @TType Encoding = omit
	.byte	1                               # Call site Encoding = uleb128
	.uleb128 .Lcst_end4-.Lcst_begin4
.Lcst_begin4:
	.uleb128 .Lfunc_begin4-.Lfunc_begin4    # >> Call Site 1 <<
	.uleb128 .Ltmp16-.Lfunc_begin4          #   Call between .Lfunc_begin4 and .Ltmp16
	.byte	0                               #     has no landing pad
	.byte	0                               #   On action: cleanup
	.uleb128 .Ltmp16-.Lfunc_begin4          # >> Call Site 2 <<
	.uleb128 .Ltmp17-.Ltmp16                #   Call between .Ltmp16 and .Ltmp17
	.uleb128 .Ltmp18-.Lfunc_begin4          #     jumps to .Ltmp18
	.byte	0                               #   On action: cleanup
	.uleb128 .Ltmp17-.Lfunc_begin4          # >> Call Site 3 <<
	.uleb128 .Lfunc_end14-.Ltmp17           #   Call between .Ltmp17 and .Lfunc_end14
	.byte	0                               #     has no landing pad
	.byte	0                               #   On action: cleanup
.Lcst_end4:
	.p2align	2
                                        # -- End function
	.section	.text._ZN3MPI9IntercommC2EP19ompi_communicator_t,"axG",@progbits,_ZN3MPI9IntercommC2EP19ompi_communicator_t,comdat
	.weak	_ZN3MPI9IntercommC2EP19ompi_communicator_t # -- Begin function _ZN3MPI9IntercommC2EP19ompi_communicator_t
	.p2align	4, 0x90
	.type	_ZN3MPI9IntercommC2EP19ompi_communicator_t,@function
_ZN3MPI9IntercommC2EP19ompi_communicator_t: # @_ZN3MPI9IntercommC2EP19ompi_communicator_t
	.cfi_startproc
# %bb.0:
	pushq	%rbp
	.cfi_def_cfa_offset 16
	.cfi_offset %rbp, -16
	movq	%rsp, %rbp
	.cfi_def_cfa_register %rbp
	subq	$32, %rsp
	movq	%rdi, -8(%rbp)
	movq	%rsi, -16(%rbp)
	movq	-8(%rbp), %rdi
	movq	%rdi, -24(%rbp)                 # 8-byte Spill
	movq	-16(%rbp), %rsi
	callq	_ZN3MPI4CommC2EP19ompi_communicator_t
	movq	-24(%rbp), %rax                 # 8-byte Reload
	leaq	_ZTVN3MPI9IntercommE(%rip), %rcx
	addq	$16, %rcx
	movq	%rcx, (%rax)
	addq	$32, %rsp
	popq	%rbp
	.cfi_def_cfa %rsp, 8
	retq
.Lfunc_end15:
	.size	_ZN3MPI9IntercommC2EP19ompi_communicator_t, .Lfunc_end15-_ZN3MPI9IntercommC2EP19ompi_communicator_t
	.cfi_endproc
                                        # -- End function
	.section	.text._ZNK3MPI5Group8Get_sizeEv,"axG",@progbits,_ZNK3MPI5Group8Get_sizeEv,comdat
	.weak	_ZNK3MPI5Group8Get_sizeEv       # -- Begin function _ZNK3MPI5Group8Get_sizeEv
	.p2align	4, 0x90
	.type	_ZNK3MPI5Group8Get_sizeEv,@function
_ZNK3MPI5Group8Get_sizeEv:              # @_ZNK3MPI5Group8Get_sizeEv
	.cfi_startproc
# %bb.0:
	pushq	%rbp
	.cfi_def_cfa_offset 16
	.cfi_offset %rbp, -16
	movq	%rsp, %rbp
	.cfi_def_cfa_register %rbp
	subq	$16, %rsp
	movq	%rdi, -8(%rbp)
	movq	-8(%rbp), %rax
	movq	8(%rax), %rdi
	leaq	-12(%rbp), %rsi
	callq	MPI_Group_size@PLT
	movl	-12(%rbp), %eax
	addq	$16, %rsp
	popq	%rbp
	.cfi_def_cfa %rsp, 8
	retq
.Lfunc_end16:
	.size	_ZNK3MPI5Group8Get_sizeEv, .Lfunc_end16-_ZNK3MPI5Group8Get_sizeEv
	.cfi_endproc
                                        # -- End function
	.section	.text._ZN3MPI2OpD0Ev,"axG",@progbits,_ZN3MPI2OpD0Ev,comdat
	.weak	_ZN3MPI2OpD0Ev                  # -- Begin function _ZN3MPI2OpD0Ev
	.p2align	4, 0x90
	.type	_ZN3MPI2OpD0Ev,@function
_ZN3MPI2OpD0Ev:                         # @_ZN3MPI2OpD0Ev
	.cfi_startproc
# %bb.0:
	pushq	%rbp
	.cfi_def_cfa_offset 16
	.cfi_offset %rbp, -16
	movq	%rsp, %rbp
	.cfi_def_cfa_register %rbp
	subq	$16, %rsp
	movq	%rdi, -8(%rbp)
	movq	-8(%rbp), %rdi
	movq	%rdi, -16(%rbp)                 # 8-byte Spill
	callq	_ZN3MPI2OpD2Ev
	movq	-16(%rbp), %rdi                 # 8-byte Reload
	callq	_ZdlPv@PLT
	addq	$16, %rsp
	popq	%rbp
	.cfi_def_cfa %rsp, 8
	retq
.Lfunc_end17:
	.size	_ZN3MPI2OpD0Ev, .Lfunc_end17-_ZN3MPI2OpD0Ev
	.cfi_endproc
                                        # -- End function
	.section	.text._ZN3MPI2OpD2Ev,"axG",@progbits,_ZN3MPI2OpD2Ev,comdat
	.weak	_ZN3MPI2OpD2Ev                  # -- Begin function _ZN3MPI2OpD2Ev
	.p2align	4, 0x90
	.type	_ZN3MPI2OpD2Ev,@function
_ZN3MPI2OpD2Ev:                         # @_ZN3MPI2OpD2Ev
	.cfi_startproc
# %bb.0:
	pushq	%rbp
	.cfi_def_cfa_offset 16
	.cfi_offset %rbp, -16
	movq	%rsp, %rbp
	.cfi_def_cfa_register %rbp
	movq	%rdi, -8(%rbp)
	popq	%rbp
	.cfi_def_cfa %rsp, 8
	retq
.Lfunc_end18:
	.size	_ZN3MPI2OpD2Ev, .Lfunc_end18-_ZN3MPI2OpD2Ev
	.cfi_endproc
                                        # -- End function
	.section	.text._ZN3MPI10Errhandler4FreeEv,"axG",@progbits,_ZN3MPI10Errhandler4FreeEv,comdat
	.weak	_ZN3MPI10Errhandler4FreeEv      # -- Begin function _ZN3MPI10Errhandler4FreeEv
	.p2align	4, 0x90
	.type	_ZN3MPI10Errhandler4FreeEv,@function
_ZN3MPI10Errhandler4FreeEv:             # @_ZN3MPI10Errhandler4FreeEv
	.cfi_startproc
# %bb.0:
	pushq	%rbp
	.cfi_def_cfa_offset 16
	.cfi_offset %rbp, -16
	movq	%rsp, %rbp
	.cfi_def_cfa_register %rbp
	subq	$16, %rsp
	movq	%rdi, -8(%rbp)
	movq	-8(%rbp), %rdi
	addq	$8, %rdi
	callq	MPI_Errhandler_free@PLT
	addq	$16, %rsp
	popq	%rbp
	.cfi_def_cfa %rsp, 8
	retq
.Lfunc_end19:
	.size	_ZN3MPI10Errhandler4FreeEv, .Lfunc_end19-_ZN3MPI10Errhandler4FreeEv
	.cfi_endproc
                                        # -- End function
	.section	.text._ZNK3MPI6Status9Get_countERKNS_8DatatypeE,"axG",@progbits,_ZNK3MPI6Status9Get_countERKNS_8DatatypeE,comdat
	.weak	_ZNK3MPI6Status9Get_countERKNS_8DatatypeE # -- Begin function _ZNK3MPI6Status9Get_countERKNS_8DatatypeE
	.p2align	4, 0x90
	.type	_ZNK3MPI6Status9Get_countERKNS_8DatatypeE,@function
_ZNK3MPI6Status9Get_countERKNS_8DatatypeE: # @_ZNK3MPI6Status9Get_countERKNS_8DatatypeE
	.cfi_startproc
# %bb.0:
	pushq	%rbp
	.cfi_def_cfa_offset 16
	.cfi_offset %rbp, -16
	movq	%rsp, %rbp
	.cfi_def_cfa_register %rbp
	subq	$32, %rsp
	movq	%rdi, -8(%rbp)
	movq	%rsi, -16(%rbp)
	movq	-8(%rbp), %rax
	addq	$8, %rax
	movq	%rax, -32(%rbp)                 # 8-byte Spill
	movq	-16(%rbp), %rdi
	callq	_ZNK3MPI8DatatypecvP15ompi_datatype_tEv
	movq	-32(%rbp), %rdi                 # 8-byte Reload
	movq	%rax, %rsi
	leaq	-20(%rbp), %rdx
	callq	MPI_Get_count@PLT
	movl	-20(%rbp), %eax
	addq	$32, %rsp
	popq	%rbp
	.cfi_def_cfa %rsp, 8
	retq
.Lfunc_end20:
	.size	_ZNK3MPI6Status9Get_countERKNS_8DatatypeE, .Lfunc_end20-_ZNK3MPI6Status9Get_countERKNS_8DatatypeE
	.cfi_endproc
                                        # -- End function
	.section	.text._ZN3MPI4Info6DeleteEPKc,"axG",@progbits,_ZN3MPI4Info6DeleteEPKc,comdat
	.weak	_ZN3MPI4Info6DeleteEPKc         # -- Begin function _ZN3MPI4Info6DeleteEPKc
	.p2align	4, 0x90
	.type	_ZN3MPI4Info6DeleteEPKc,@function
_ZN3MPI4Info6DeleteEPKc:                # @_ZN3MPI4Info6DeleteEPKc
	.cfi_startproc
# %bb.0:
	pushq	%rbp
	.cfi_def_cfa_offset 16
	.cfi_offset %rbp, -16
	movq	%rsp, %rbp
	.cfi_def_cfa_register %rbp
	subq	$16, %rsp
	movq	%rdi, -8(%rbp)
	movq	%rsi, -16(%rbp)
	movq	-8(%rbp), %rax
	movq	8(%rax), %rdi
	movq	-16(%rbp), %rsi
	callq	MPI_Info_delete@PLT
	addq	$16, %rsp
	popq	%rbp
	.cfi_def_cfa %rsp, 8
	retq
.Lfunc_end21:
	.size	_ZN3MPI4Info6DeleteEPKc, .Lfunc_end21-_ZN3MPI4Info6DeleteEPKc
	.cfi_endproc
                                        # -- End function
	.section	.text._ZNK3MPI3Win14Set_errhandlerERKNS_10ErrhandlerE,"axG",@progbits,_ZNK3MPI3Win14Set_errhandlerERKNS_10ErrhandlerE,comdat
	.weak	_ZNK3MPI3Win14Set_errhandlerERKNS_10ErrhandlerE # -- Begin function _ZNK3MPI3Win14Set_errhandlerERKNS_10ErrhandlerE
	.p2align	4, 0x90
	.type	_ZNK3MPI3Win14Set_errhandlerERKNS_10ErrhandlerE,@function
_ZNK3MPI3Win14Set_errhandlerERKNS_10ErrhandlerE: # @_ZNK3MPI3Win14Set_errhandlerERKNS_10ErrhandlerE
	.cfi_startproc
# %bb.0:
	pushq	%rbp
	.cfi_def_cfa_offset 16
	.cfi_offset %rbp, -16
	movq	%rsp, %rbp
	.cfi_def_cfa_register %rbp
	subq	$32, %rsp
	movq	%rdi, -8(%rbp)
	movq	%rsi, -16(%rbp)
	movq	-8(%rbp), %rax
	movq	8(%rax), %rax
	movq	%rax, -24(%rbp)                 # 8-byte Spill
	movq	-16(%rbp), %rdi
	callq	_ZNK3MPI10ErrhandlercvP17ompi_errhandler_tEv
	movq	-24(%rbp), %rdi                 # 8-byte Reload
	movq	%rax, %rsi
	callq	MPI_Win_set_errhandler@PLT
	addq	$32, %rsp
	popq	%rbp
	.cfi_def_cfa %rsp, 8
	retq
.Lfunc_end22:
	.size	_ZNK3MPI3Win14Set_errhandlerERKNS_10ErrhandlerE, .Lfunc_end22-_ZNK3MPI3Win14Set_errhandlerERKNS_10ErrhandlerE
	.cfi_endproc
                                        # -- End function
	.section	.text._ZNK3MPI10ErrhandlercvP17ompi_errhandler_tEv,"axG",@progbits,_ZNK3MPI10ErrhandlercvP17ompi_errhandler_tEv,comdat
	.weak	_ZNK3MPI10ErrhandlercvP17ompi_errhandler_tEv # -- Begin function _ZNK3MPI10ErrhandlercvP17ompi_errhandler_tEv
	.p2align	4, 0x90
	.type	_ZNK3MPI10ErrhandlercvP17ompi_errhandler_tEv,@function
_ZNK3MPI10ErrhandlercvP17ompi_errhandler_tEv: # @_ZNK3MPI10ErrhandlercvP17ompi_errhandler_tEv
	.cfi_startproc
# %bb.0:
	pushq	%rbp
	.cfi_def_cfa_offset 16
	.cfi_offset %rbp, -16
	movq	%rsp, %rbp
	.cfi_def_cfa_register %rbp
	movq	%rdi, -8(%rbp)
	movq	-8(%rbp), %rax
	movq	8(%rax), %rax
	popq	%rbp
	.cfi_def_cfa %rsp, 8
	retq
.Lfunc_end23:
	.size	_ZNK3MPI10ErrhandlercvP17ompi_errhandler_tEv, .Lfunc_end23-_ZNK3MPI10ErrhandlercvP17ompi_errhandler_tEv
	.cfi_endproc
                                        # -- End function
	.text
	.globl	_Z21__device_stub__vecAddPfS_S_i # -- Begin function _Z21__device_stub__vecAddPfS_S_i
	.p2align	4, 0x90
	.type	_Z21__device_stub__vecAddPfS_S_i,@function
_Z21__device_stub__vecAddPfS_S_i:       # @_Z21__device_stub__vecAddPfS_S_i
	.cfi_startproc
# %bb.0:
	pushq	%rbp
	.cfi_def_cfa_offset 16
	.cfi_offset %rbp, -16
	movq	%rsp, %rbp
	.cfi_def_cfa_register %rbp
	subq	$160, %rsp
	movq	%rdi, -8(%rbp)
	movq	%rsi, -16(%rbp)
	movq	%rdx, -24(%rbp)
	movl	%ecx, -28(%rbp)
	leaq	-8(%rbp), %rax
	movq	%rax, -144(%rbp)
	leaq	-16(%rbp), %rax
	movq	%rax, -136(%rbp)
	leaq	-24(%rbp), %rax
	movq	%rax, -128(%rbp)
	leaq	-28(%rbp), %rax
	movq	%rax, -120(%rbp)
	leaq	-40(%rbp), %rdi
	leaq	-56(%rbp), %rsi
	leaq	-64(%rbp), %rdx
	leaq	-72(%rbp), %rcx
	callq	__cudaPopCallConfiguration@PLT
	movq	-64(%rbp), %r10
	movq	-72(%rbp), %rax
	movq	-40(%rbp), %rcx
	movq	%rcx, -88(%rbp)
	movl	-32(%rbp), %ecx
	movl	%ecx, -80(%rbp)
	movq	-88(%rbp), %rsi
	movl	-80(%rbp), %edx
	movq	-56(%rbp), %rcx
	movq	%rcx, -104(%rbp)
	movl	-48(%rbp), %ecx
	movl	%ecx, -96(%rbp)
	movq	-104(%rbp), %rcx
	movl	-96(%rbp), %r8d
	leaq	_Z21__device_stub__vecAddPfS_S_i(%rip), %rdi
	leaq	-144(%rbp), %r9
	movq	%r10, (%rsp)
	movq	%rax, 8(%rsp)
	callq	cudaLaunchKernel@PLT
# %bb.1:
	addq	$160, %rsp
	popq	%rbp
	.cfi_def_cfa %rsp, 8
	retq
.Lfunc_end24:
	.size	_Z21__device_stub__vecAddPfS_S_i, .Lfunc_end24-_Z21__device_stub__vecAddPfS_S_i
	.cfi_endproc
                                        # -- End function
	.globl	_Z27__device_stub__forward_passPfS_S_ii # -- Begin function _Z27__device_stub__forward_passPfS_S_ii
	.p2align	4, 0x90
	.type	_Z27__device_stub__forward_passPfS_S_ii,@function
_Z27__device_stub__forward_passPfS_S_ii: # @_Z27__device_stub__forward_passPfS_S_ii
	.cfi_startproc
# %bb.0:
	pushq	%rbp
	.cfi_def_cfa_offset 16
	.cfi_offset %rbp, -16
	movq	%rsp, %rbp
	.cfi_def_cfa_register %rbp
	subq	$176, %rsp
	movq	%rdi, -8(%rbp)
	movq	%rsi, -16(%rbp)
	movq	%rdx, -24(%rbp)
	movl	%ecx, -28(%rbp)
	movl	%r8d, -32(%rbp)
	leaq	-8(%rbp), %rax
	movq	%rax, -160(%rbp)
	leaq	-16(%rbp), %rax
	movq	%rax, -152(%rbp)
	leaq	-24(%rbp), %rax
	movq	%rax, -144(%rbp)
	leaq	-28(%rbp), %rax
	movq	%rax, -136(%rbp)
	leaq	-32(%rbp), %rax
	movq	%rax, -128(%rbp)
	leaq	-48(%rbp), %rdi
	leaq	-64(%rbp), %rsi
	leaq	-72(%rbp), %rdx
	leaq	-80(%rbp), %rcx
	callq	__cudaPopCallConfiguration@PLT
	movq	-72(%rbp), %r10
	movq	-80(%rbp), %rax
	movq	-48(%rbp), %rcx
	movq	%rcx, -96(%rbp)
	movl	-40(%rbp), %ecx
	movl	%ecx, -88(%rbp)
	movq	-96(%rbp), %rsi
	movl	-88(%rbp), %edx
	movq	-64(%rbp), %rcx
	movq	%rcx, -112(%rbp)
	movl	-56(%rbp), %ecx
	movl	%ecx, -104(%rbp)
	movq	-112(%rbp), %rcx
	movl	-104(%rbp), %r8d
	leaq	_Z27__device_stub__forward_passPfS_S_ii(%rip), %rdi
	leaq	-160(%rbp), %r9
	movq	%r10, (%rsp)
	movq	%rax, 8(%rsp)
	callq	cudaLaunchKernel@PLT
# %bb.1:
	addq	$176, %rsp
	popq	%rbp
	.cfi_def_cfa %rsp, 8
	retq
.Lfunc_end25:
	.size	_Z27__device_stub__forward_passPfS_S_ii, .Lfunc_end25-_Z27__device_stub__forward_passPfS_S_ii
	.cfi_endproc
                                        # -- End function
	.globl	_Z28__device_stub__backward_passPfS_S_i # -- Begin function _Z28__device_stub__backward_passPfS_S_i
	.p2align	4, 0x90
	.type	_Z28__device_stub__backward_passPfS_S_i,@function
_Z28__device_stub__backward_passPfS_S_i: # @_Z28__device_stub__backward_passPfS_S_i
	.cfi_startproc
# %bb.0:
	pushq	%rbp
	.cfi_def_cfa_offset 16
	.cfi_offset %rbp, -16
	movq	%rsp, %rbp
	.cfi_def_cfa_register %rbp
	subq	$160, %rsp
	movq	%rdi, -8(%rbp)
	movq	%rsi, -16(%rbp)
	movq	%rdx, -24(%rbp)
	movl	%ecx, -28(%rbp)
	leaq	-8(%rbp), %rax
	movq	%rax, -144(%rbp)
	leaq	-16(%rbp), %rax
	movq	%rax, -136(%rbp)
	leaq	-24(%rbp), %rax
	movq	%rax, -128(%rbp)
	leaq	-28(%rbp), %rax
	movq	%rax, -120(%rbp)
	leaq	-40(%rbp), %rdi
	leaq	-56(%rbp), %rsi
	leaq	-64(%rbp), %rdx
	leaq	-72(%rbp), %rcx
	callq	__cudaPopCallConfiguration@PLT
	movq	-64(%rbp), %r10
	movq	-72(%rbp), %rax
	movq	-40(%rbp), %rcx
	movq	%rcx, -88(%rbp)
	movl	-32(%rbp), %ecx
	movl	%ecx, -80(%rbp)
	movq	-88(%rbp), %rsi
	movl	-80(%rbp), %edx
	movq	-56(%rbp), %rcx
	movq	%rcx, -104(%rbp)
	movl	-48(%rbp), %ecx
	movl	%ecx, -96(%rbp)
	movq	-104(%rbp), %rcx
	movl	-96(%rbp), %r8d
	leaq	_Z28__device_stub__backward_passPfS_S_i(%rip), %rdi
	leaq	-144(%rbp), %r9
	movq	%r10, (%rsp)
	movq	%rax, 8(%rsp)
	callq	cudaLaunchKernel@PLT
# %bb.1:
	addq	$160, %rsp
	popq	%rbp
	.cfi_def_cfa %rsp, 8
	retq
.Lfunc_end26:
	.size	_Z28__device_stub__backward_passPfS_S_i, .Lfunc_end26-_Z28__device_stub__backward_passPfS_S_i
	.cfi_endproc
                                        # -- End function
	.globl	_Z25__device_stub__calc_gradsPfS_S_ii # -- Begin function _Z25__device_stub__calc_gradsPfS_S_ii
	.p2align	4, 0x90
	.type	_Z25__device_stub__calc_gradsPfS_S_ii,@function
_Z25__device_stub__calc_gradsPfS_S_ii:  # @_Z25__device_stub__calc_gradsPfS_S_ii
	.cfi_startproc
# %bb.0:
	pushq	%rbp
	.cfi_def_cfa_offset 16
	.cfi_offset %rbp, -16
	movq	%rsp, %rbp
	.cfi_def_cfa_register %rbp
	subq	$176, %rsp
	movq	%rdi, -8(%rbp)
	movq	%rsi, -16(%rbp)
	movq	%rdx, -24(%rbp)
	movl	%ecx, -28(%rbp)
	movl	%r8d, -32(%rbp)
	leaq	-8(%rbp), %rax
	movq	%rax, -160(%rbp)
	leaq	-16(%rbp), %rax
	movq	%rax, -152(%rbp)
	leaq	-24(%rbp), %rax
	movq	%rax, -144(%rbp)
	leaq	-28(%rbp), %rax
	movq	%rax, -136(%rbp)
	leaq	-32(%rbp), %rax
	movq	%rax, -128(%rbp)
	leaq	-48(%rbp), %rdi
	leaq	-64(%rbp), %rsi
	leaq	-72(%rbp), %rdx
	leaq	-80(%rbp), %rcx
	callq	__cudaPopCallConfiguration@PLT
	movq	-72(%rbp), %r10
	movq	-80(%rbp), %rax
	movq	-48(%rbp), %rcx
	movq	%rcx, -96(%rbp)
	movl	-40(%rbp), %ecx
	movl	%ecx, -88(%rbp)
	movq	-96(%rbp), %rsi
	movl	-88(%rbp), %edx
	movq	-64(%rbp), %rcx
	movq	%rcx, -112(%rbp)
	movl	-56(%rbp), %ecx
	movl	%ecx, -104(%rbp)
	movq	-112(%rbp), %rcx
	movl	-104(%rbp), %r8d
	leaq	_Z25__device_stub__calc_gradsPfS_S_ii(%rip), %rdi
	leaq	-160(%rbp), %r9
	movq	%r10, (%rsp)
	movq	%rax, 8(%rsp)
	callq	cudaLaunchKernel@PLT
# %bb.1:
	addq	$176, %rsp
	popq	%rbp
	.cfi_def_cfa %rsp, 8
	retq
.Lfunc_end27:
	.size	_Z25__device_stub__calc_gradsPfS_S_ii, .Lfunc_end27-_Z25__device_stub__calc_gradsPfS_S_ii
	.cfi_endproc
                                        # -- End function
	.section	.rodata.cst4,"aM",@progbits,4
	.p2align	2                               # -- Begin function main
.LCPI28_0:
	.long	0x3c23d70a                      # float 0.00999999977
.LCPI28_2:
	.long	0x3f800000                      # float 1
.LCPI28_3:
	.long	0x4f000000                      # float 2.14748365E+9
.LCPI28_4:
	.long	0xbf800000                      # float -1
	.section	.rodata.cst8,"aM",@progbits,8
	.p2align	3
.LCPI28_1:
	.quad	0x3fe0000000000000              # double 0.5
	.text
	.globl	main
	.p2align	4, 0x90
	.type	main,@function
main:                                   # @main
	.cfi_startproc
# %bb.0:
	pushq	%rbp
	.cfi_def_cfa_offset 16
	.cfi_offset %rbp, -16
	movq	%rsp, %rbp
	.cfi_def_cfa_register %rbp
	subq	$1840, %rsp                     # imm = 0x730
	movl	$0, -4(%rbp)
	movl	%edi, -8(%rbp)
	movq	%rsi, -16(%rbp)
	movl	$1024, -20(%rbp)                # imm = 0x400
	movl	$1000, -24(%rbp)                # imm = 0x3E8
	movss	.LCPI28_0(%rip), %xmm0          # xmm0 = mem[0],zero,zero,zero
	movss	%xmm0, -28(%rbp)
	movl	$0, -40(%rbp)
# %bb.1:
	leaq	-8(%rbp), %rdi
	leaq	-16(%rbp), %rsi
	callq	MPI_Init@PLT
	movl	%eax, -44(%rbp)
	cmpl	$0, -44(%rbp)
	je	.LBB28_3
# %bb.2:
	movl	-44(%rbp), %ecx
	leaq	.L.str(%rip), %rdi
	leaq	.L.str.1(%rip), %rsi
	movl	$117, %edx
	movb	$0, %al
	callq	printf@PLT
	movl	$1, %edi
	callq	exit@PLT
.LBB28_3:
	jmp	.LBB28_4
.LBB28_4:
	jmp	.LBB28_5
.LBB28_5:
	movq	ompi_mpi_comm_world@GOTPCREL(%rip), %rdi
	leaq	-32(%rbp), %rsi
	callq	MPI_Comm_rank@PLT
	movl	%eax, -48(%rbp)
	cmpl	$0, -48(%rbp)
	je	.LBB28_7
# %bb.6:
	movl	-48(%rbp), %ecx
	leaq	.L.str(%rip), %rdi
	leaq	.L.str.1(%rip), %rsi
	movl	$118, %edx
	movb	$0, %al
	callq	printf@PLT
	movl	$1, %edi
	callq	exit@PLT
.LBB28_7:
	jmp	.LBB28_8
.LBB28_8:
	jmp	.LBB28_9
.LBB28_9:
	movq	ompi_mpi_comm_world@GOTPCREL(%rip), %rdi
	leaq	-36(%rbp), %rsi
	callq	MPI_Comm_size@PLT
	movl	%eax, -52(%rbp)
	cmpl	$0, -52(%rbp)
	je	.LBB28_11
# %bb.10:
	movl	-52(%rbp), %ecx
	leaq	.L.str(%rip), %rdi
	leaq	.L.str.1(%rip), %rsi
	movl	$119, %edx
	movb	$0, %al
	callq	printf@PLT
	movl	$1, %edi
	callq	exit@PLT
.LBB28_11:
	jmp	.LBB28_12
.LBB28_12:
	movl	-36(%rbp), %eax
                                        # kill: def $rax killed $eax
	movq	%rsp, %rcx
	movq	%rcx, -64(%rbp)
	leaq	15(,%rax,8), %rdx
	andq	$-16, %rdx
	movq	%rsp, %rcx
	subq	%rdx, %rcx
	movq	%rcx, -1800(%rbp)               # 8-byte Spill
	movq	%rcx, %rsp
	movq	%rax, -72(%rbp)
	leaq	-1104(%rbp), %rdi
	movl	$1024, %esi                     # imm = 0x400
	callq	_ZL11getHostNamePci
	leaq	-1104(%rbp), %rdi
	callq	_ZL11getHostHashPKc
	movq	%rax, %rdx
	movq	-1800(%rbp), %rax               # 8-byte Reload
	movslq	-32(%rbp), %rcx
	movq	%rdx, (%rax,%rcx,8)
# %bb.13:
	movq	-1800(%rbp), %rcx               # 8-byte Reload
	movl	$1, %edi
	xorl	%esi, %esi
	movq	ompi_mpi_datatype_null@GOTPCREL(%rip), %rdx
	movl	$8, %r8d
	movq	ompi_mpi_byte@GOTPCREL(%rip), %r9
	movq	ompi_mpi_comm_world@GOTPCREL(%rip), %rax
	subq	$16, %rsp
	movq	%rax, (%rsp)
	callq	MPI_Allgather@PLT
	addq	$16, %rsp
	movl	%eax, -1108(%rbp)
	cmpl	$0, -1108(%rbp)
	je	.LBB28_15
# %bb.14:
	movl	-1108(%rbp), %ecx
	leaq	.L.str(%rip), %rdi
	leaq	.L.str.1(%rip), %rsi
	movl	$126, %edx
	movb	$0, %al
	callq	printf@PLT
	movl	$1, %edi
	callq	exit@PLT
.LBB28_15:
	jmp	.LBB28_16
.LBB28_16:
	jmp	.LBB28_17
.LBB28_17:
	movl	$0, -1112(%rbp)
.LBB28_18:                              # =>This Inner Loop Header: Depth=1
	movl	-1112(%rbp), %eax
	cmpl	-36(%rbp), %eax
	jge	.LBB28_25
# %bb.19:                               #   in Loop: Header=BB28_18 Depth=1
	movl	-1112(%rbp), %eax
	cmpl	-32(%rbp), %eax
	jne	.LBB28_21
# %bb.20:
	jmp	.LBB28_25
.LBB28_21:                              #   in Loop: Header=BB28_18 Depth=1
	movq	-1800(%rbp), %rcx               # 8-byte Reload
	movslq	-1112(%rbp), %rax
	movq	(%rcx,%rax,8), %rax
	movslq	-32(%rbp), %rdx
	cmpq	(%rcx,%rdx,8), %rax
	jne	.LBB28_23
# %bb.22:                               #   in Loop: Header=BB28_18 Depth=1
	movl	-40(%rbp), %eax
	addl	$1, %eax
	movl	%eax, -40(%rbp)
.LBB28_23:                              #   in Loop: Header=BB28_18 Depth=1
	jmp	.LBB28_24
.LBB28_24:                              #   in Loop: Header=BB28_18 Depth=1
	movl	-1112(%rbp), %eax
	addl	$1, %eax
	movl	%eax, -1112(%rbp)
	jmp	.LBB28_18
.LBB28_25:
	jmp	.LBB28_26
.LBB28_26:
	leaq	-1240(%rbp), %rdi
	movl	$128, %esi
	movq	ompi_mpi_byte@GOTPCREL(%rip), %rdx
	xorl	%ecx, %ecx
	movq	ompi_mpi_comm_world@GOTPCREL(%rip), %r8
	callq	MPI_Bcast@PLT
	movl	%eax, -1260(%rbp)
	cmpl	$0, -1260(%rbp)
	je	.LBB28_28
# %bb.27:
	movl	-1260(%rbp), %ecx
	leaq	.L.str(%rip), %rdi
	leaq	.L.str.1(%rip), %rsi
	movl	$138, %edx
	movb	$0, %al
	callq	printf@PLT
	movl	$1, %edi
	callq	exit@PLT
.LBB28_28:
	jmp	.LBB28_29
.LBB28_29:
	jmp	.LBB28_30
.LBB28_30:
	jmp	.LBB28_31
.LBB28_31:
	leaq	-1256(%rbp), %rdi
	callq	cudaStreamCreate@PLT
	movl	%eax, -1264(%rbp)
	cmpl	$0, -1264(%rbp)
	je	.LBB28_33
# %bb.32:
	movl	-1264(%rbp), %edi
	callq	cudaGetErrorString@PLT
	movq	%rax, %rcx
	leaq	.L.str.2(%rip), %rdi
	leaq	.L.str.1(%rip), %rsi
	movl	$143, %edx
	movb	$0, %al
	callq	printf@PLT
	movl	$1, %edi
	callq	exit@PLT
.LBB28_33:
	jmp	.LBB28_34
.LBB28_34:
	jmp	.LBB28_35
.LBB28_35:
	jmp	.LBB28_36
.LBB28_36:
	movl	-36(%rbp), %eax
	movl	%eax, -1812(%rbp)               # 4-byte Spill
	leaq	-1400(%rbp), %rdi
	leaq	-1240(%rbp), %rsi
	movl	$128, %edx
	callq	memcpy@PLT
	movl	-1812(%rbp), %esi               # 4-byte Reload
	movl	-32(%rbp), %edx
	subq	$128, %rsp
	movups	-1288(%rbp), %xmm0
	movq	%rsp, %rax
	movq	%rax, -1808(%rbp)               # 8-byte Spill
	movups	%xmm0, 112(%rax)
	movups	-1304(%rbp), %xmm0
	movups	%xmm0, 96(%rax)
	movups	-1320(%rbp), %xmm0
	movups	%xmm0, 80(%rax)
	movups	-1336(%rbp), %xmm0
	movups	%xmm0, 64(%rax)
	movups	-1400(%rbp), %xmm0
	movups	-1384(%rbp), %xmm1
	movups	-1368(%rbp), %xmm2
	movups	-1352(%rbp), %xmm3
	movups	%xmm3, 48(%rax)
	movups	%xmm2, 32(%rax)
	movups	%xmm1, 16(%rax)
	movups	%xmm0, (%rax)
	leaq	-1248(%rbp), %rdi
	callq	ncclCommInitRank@PLT
	addq	$128, %rsp
	movl	%eax, -1268(%rbp)
	cmpl	$0, -1268(%rbp)
	je	.LBB28_38
# %bb.37:
	movl	-1268(%rbp), %edi
	callq	ncclGetErrorString@PLT
	movq	%rax, %rcx
	leaq	.L.str.3(%rip), %rdi
	leaq	.L.str.1(%rip), %rsi
	movl	$146, %edx
	movb	$0, %al
	callq	printf@PLT
	movl	$1, %edi
	callq	exit@PLT
.LBB28_38:
	jmp	.LBB28_39
.LBB28_39:
	jmp	.LBB28_40
.LBB28_40:
	movl	-20(%rbp), %eax
	imull	-24(%rbp), %eax
	movslq	%eax, %rdi
	shlq	$2, %rdi
	callq	malloc@PLT
	movq	%rax, -1408(%rbp)
	movslq	-24(%rbp), %rdi
	shlq	$2, %rdi
	callq	malloc@PLT
	movq	%rax, -1416(%rbp)
	movslq	-24(%rbp), %rdi
	shlq	$2, %rdi
	callq	malloc@PLT
	movq	%rax, -1424(%rbp)
	movslq	-20(%rbp), %rdi
	shlq	$2, %rdi
	callq	malloc@PLT
	movq	%rax, -1432(%rbp)
	movl	$0, -1436(%rbp)
.LBB28_41:                              # =>This Inner Loop Header: Depth=1
	movl	-1436(%rbp), %eax
	cmpl	-24(%rbp), %eax
	jge	.LBB28_44
# %bb.42:                               #   in Loop: Header=BB28_41 Depth=1
	callq	rand@PLT
	cvtsi2ss	%eax, %xmm0
	movss	.LCPI28_3(%rip), %xmm1          # xmm1 = mem[0],zero,zero,zero
	divss	%xmm1, %xmm0
	movss	.LCPI28_0(%rip), %xmm1          # xmm1 = mem[0],zero,zero,zero
	mulss	%xmm1, %xmm0
	movq	-1416(%rbp), %rax
	movslq	-1436(%rbp), %rcx
	movss	%xmm0, (%rax,%rcx,4)
# %bb.43:                               #   in Loop: Header=BB28_41 Depth=1
	movl	-1436(%rbp), %eax
	addl	$1, %eax
	movl	%eax, -1436(%rbp)
	jmp	.LBB28_41
.LBB28_44:
	xorl	%eax, %eax
	movl	%eax, %edi
	callq	time@PLT
	movslq	-32(%rbp), %rcx
	addq	%rcx, %rax
	movl	%eax, %edi
	callq	srand@PLT
	movl	$0, -1440(%rbp)
.LBB28_45:                              # =>This Inner Loop Header: Depth=1
	movl	-1440(%rbp), %eax
	movl	-20(%rbp), %ecx
	imull	-24(%rbp), %ecx
	cmpl	%ecx, %eax
	jge	.LBB28_48
# %bb.46:                               #   in Loop: Header=BB28_45 Depth=1
	callq	rand@PLT
	cvtsi2ss	%eax, %xmm0
	movss	.LCPI28_3(%rip), %xmm1          # xmm1 = mem[0],zero,zero,zero
	divss	%xmm1, %xmm0
	addss	%xmm0, %xmm0
	movss	.LCPI28_4(%rip), %xmm1          # xmm1 = mem[0],zero,zero,zero
	addss	%xmm1, %xmm0
	movq	-1408(%rbp), %rax
	movslq	-1440(%rbp), %rcx
	movss	%xmm0, (%rax,%rcx,4)
# %bb.47:                               #   in Loop: Header=BB28_45 Depth=1
	movl	-1440(%rbp), %eax
	addl	$1, %eax
	movl	%eax, -1440(%rbp)
	jmp	.LBB28_45
.LBB28_48:
	movl	$0, -1444(%rbp)
.LBB28_49:                              # =>This Inner Loop Header: Depth=1
	movl	-1444(%rbp), %eax
	cmpl	-20(%rbp), %eax
	jge	.LBB28_52
# %bb.50:                               #   in Loop: Header=BB28_49 Depth=1
	callq	rand@PLT
	cvtsi2ss	%eax, %xmm0
	movss	.LCPI28_3(%rip), %xmm1          # xmm1 = mem[0],zero,zero,zero
	divss	%xmm1, %xmm0
	cvtss2sd	%xmm0, %xmm1
	movsd	.LCPI28_1(%rip), %xmm2          # xmm2 = mem[0],zero
	movss	.LCPI28_2(%rip), %xmm0          # xmm0 = mem[0],zero,zero,zero
	xorps	%xmm3, %xmm3
	movss	%xmm3, -1820(%rbp)              # 4-byte Spill
	ucomisd	%xmm2, %xmm1
	movss	%xmm0, -1816(%rbp)              # 4-byte Spill
	ja	.LBB28_184
# %bb.183:                              #   in Loop: Header=BB28_49 Depth=1
	movss	-1820(%rbp), %xmm0              # 4-byte Reload
                                        # xmm0 = mem[0],zero,zero,zero
	movss	%xmm0, -1816(%rbp)              # 4-byte Spill
.LBB28_184:                             #   in Loop: Header=BB28_49 Depth=1
	movss	-1816(%rbp), %xmm0              # 4-byte Reload
                                        # xmm0 = mem[0],zero,zero,zero
	movq	-1432(%rbp), %rax
	movslq	-1444(%rbp), %rcx
	movss	%xmm0, (%rax,%rcx,4)
# %bb.51:                               #   in Loop: Header=BB28_49 Depth=1
	movl	-1444(%rbp), %eax
	addl	$1, %eax
	movl	%eax, -1444(%rbp)
	jmp	.LBB28_49
.LBB28_52:
	jmp	.LBB28_53
.LBB28_53:
	movl	-20(%rbp), %eax
	imull	-24(%rbp), %eax
	movslq	%eax, %rsi
	shlq	$2, %rsi
	leaq	-1456(%rbp), %rdi
	callq	_ZL10cudaMallocIfE9cudaErrorPPT_m
	movl	%eax, -1500(%rbp)
	cmpl	$0, -1500(%rbp)
	je	.LBB28_55
# %bb.54:
	movl	-1500(%rbp), %edi
	callq	cudaGetErrorString@PLT
	movq	%rax, %rcx
	leaq	.L.str.2(%rip), %rdi
	leaq	.L.str.1(%rip), %rsi
	movl	$172, %edx
	movb	$0, %al
	callq	printf@PLT
	movl	$1, %edi
	callq	exit@PLT
.LBB28_55:
	jmp	.LBB28_56
.LBB28_56:
	jmp	.LBB28_57
.LBB28_57:
	jmp	.LBB28_58
.LBB28_58:
	movslq	-24(%rbp), %rsi
	shlq	$2, %rsi
	leaq	-1464(%rbp), %rdi
	callq	_ZL10cudaMallocIfE9cudaErrorPPT_m
	movl	%eax, -1504(%rbp)
	cmpl	$0, -1504(%rbp)
	je	.LBB28_60
# %bb.59:
	movl	-1504(%rbp), %edi
	callq	cudaGetErrorString@PLT
	movq	%rax, %rcx
	leaq	.L.str.2(%rip), %rdi
	leaq	.L.str.1(%rip), %rsi
	movl	$173, %edx
	movb	$0, %al
	callq	printf@PLT
	movl	$1, %edi
	callq	exit@PLT
.LBB28_60:
	jmp	.LBB28_61
.LBB28_61:
	jmp	.LBB28_62
.LBB28_62:
	jmp	.LBB28_63
.LBB28_63:
	movslq	-20(%rbp), %rsi
	shlq	$2, %rsi
	leaq	-1472(%rbp), %rdi
	callq	_ZL10cudaMallocIfE9cudaErrorPPT_m
	movl	%eax, -1508(%rbp)
	cmpl	$0, -1508(%rbp)
	je	.LBB28_65
# %bb.64:
	movl	-1508(%rbp), %edi
	callq	cudaGetErrorString@PLT
	movq	%rax, %rcx
	leaq	.L.str.2(%rip), %rdi
	leaq	.L.str.1(%rip), %rsi
	movl	$174, %edx
	movb	$0, %al
	callq	printf@PLT
	movl	$1, %edi
	callq	exit@PLT
.LBB28_65:
	jmp	.LBB28_66
.LBB28_66:
	jmp	.LBB28_67
.LBB28_67:
	jmp	.LBB28_68
.LBB28_68:
	movslq	-24(%rbp), %rsi
	shlq	$2, %rsi
	leaq	-1480(%rbp), %rdi
	callq	_ZL10cudaMallocIfE9cudaErrorPPT_m
	movl	%eax, -1512(%rbp)
	cmpl	$0, -1512(%rbp)
	je	.LBB28_70
# %bb.69:
	movl	-1512(%rbp), %edi
	callq	cudaGetErrorString@PLT
	movq	%rax, %rcx
	leaq	.L.str.2(%rip), %rdi
	leaq	.L.str.1(%rip), %rsi
	movl	$175, %edx
	movb	$0, %al
	callq	printf@PLT
	movl	$1, %edi
	callq	exit@PLT
.LBB28_70:
	jmp	.LBB28_71
.LBB28_71:
	jmp	.LBB28_72
.LBB28_72:
	jmp	.LBB28_73
.LBB28_73:
	movslq	-20(%rbp), %rsi
	shlq	$2, %rsi
	leaq	-1488(%rbp), %rdi
	callq	_ZL10cudaMallocIfE9cudaErrorPPT_m
	movl	%eax, -1516(%rbp)
	cmpl	$0, -1516(%rbp)
	je	.LBB28_75
# %bb.74:
	movl	-1516(%rbp), %edi
	callq	cudaGetErrorString@PLT
	movq	%rax, %rcx
	leaq	.L.str.2(%rip), %rdi
	leaq	.L.str.1(%rip), %rsi
	movl	$176, %edx
	movb	$0, %al
	callq	printf@PLT
	movl	$1, %edi
	callq	exit@PLT
.LBB28_75:
	jmp	.LBB28_76
.LBB28_76:
	jmp	.LBB28_77
.LBB28_77:
	jmp	.LBB28_78
.LBB28_78:
	movslq	-20(%rbp), %rsi
	shlq	$2, %rsi
	leaq	-1496(%rbp), %rdi
	callq	_ZL10cudaMallocIfE9cudaErrorPPT_m
	movl	%eax, -1520(%rbp)
	cmpl	$0, -1520(%rbp)
	je	.LBB28_80
# %bb.79:
	movl	-1520(%rbp), %edi
	callq	cudaGetErrorString@PLT
	movq	%rax, %rcx
	leaq	.L.str.2(%rip), %rdi
	leaq	.L.str.1(%rip), %rsi
	movl	$177, %edx
	movb	$0, %al
	callq	printf@PLT
	movl	$1, %edi
	callq	exit@PLT
.LBB28_80:
	jmp	.LBB28_81
.LBB28_81:
	jmp	.LBB28_82
.LBB28_82:
	jmp	.LBB28_83
.LBB28_83:
	movq	-1456(%rbp), %rdi
	movq	-1408(%rbp), %rsi
	movl	-20(%rbp), %eax
	imull	-24(%rbp), %eax
	movslq	%eax, %rdx
	shlq	$2, %rdx
	movl	$1, %ecx
	callq	cudaMemcpy@PLT
	movl	%eax, -1524(%rbp)
	cmpl	$0, -1524(%rbp)
	je	.LBB28_85
# %bb.84:
	movl	-1524(%rbp), %edi
	callq	cudaGetErrorString@PLT
	movq	%rax, %rcx
	leaq	.L.str.2(%rip), %rdi
	leaq	.L.str.1(%rip), %rsi
	movl	$181, %edx
	movb	$0, %al
	callq	printf@PLT
	movl	$1, %edi
	callq	exit@PLT
.LBB28_85:
	jmp	.LBB28_86
.LBB28_86:
	jmp	.LBB28_87
.LBB28_87:
	jmp	.LBB28_88
.LBB28_88:
	movq	-1464(%rbp), %rdi
	movq	-1416(%rbp), %rsi
	movslq	-24(%rbp), %rdx
	shlq	$2, %rdx
	movl	$1, %ecx
	callq	cudaMemcpy@PLT
	movl	%eax, -1528(%rbp)
	cmpl	$0, -1528(%rbp)
	je	.LBB28_90
# %bb.89:
	movl	-1528(%rbp), %edi
	callq	cudaGetErrorString@PLT
	movq	%rax, %rcx
	leaq	.L.str.2(%rip), %rdi
	leaq	.L.str.1(%rip), %rsi
	movl	$182, %edx
	movb	$0, %al
	callq	printf@PLT
	movl	$1, %edi
	callq	exit@PLT
.LBB28_90:
	jmp	.LBB28_91
.LBB28_91:
	jmp	.LBB28_92
.LBB28_92:
	jmp	.LBB28_93
.LBB28_93:
	movq	-1472(%rbp), %rdi
	movq	-1432(%rbp), %rsi
	movslq	-20(%rbp), %rdx
	shlq	$2, %rdx
	movl	$1, %ecx
	callq	cudaMemcpy@PLT
	movl	%eax, -1532(%rbp)
	cmpl	$0, -1532(%rbp)
	je	.LBB28_95
# %bb.94:
	movl	-1532(%rbp), %edi
	callq	cudaGetErrorString@PLT
	movq	%rax, %rcx
	leaq	.L.str.2(%rip), %rdi
	leaq	.L.str.1(%rip), %rsi
	movl	$183, %edx
	movb	$0, %al
	callq	printf@PLT
	movl	$1, %edi
	callq	exit@PLT
.LBB28_95:
	jmp	.LBB28_96
.LBB28_96:
	jmp	.LBB28_97
.LBB28_97:
	movl	$1, -1536(%rbp)
	movl	$512, -1540(%rbp)               # imm = 0x200
	movl	-20(%rbp), %eax
	addl	-1540(%rbp), %eax
	subl	$1, %eax
	cltd
	idivl	-1540(%rbp)
	movl	%eax, -1544(%rbp)
	movl	$0, -1548(%rbp)
.LBB28_98:                              # =>This Inner Loop Header: Depth=1
	movl	-1548(%rbp), %eax
	cmpl	-1536(%rbp), %eax
	jge	.LBB28_137
# %bb.99:                               #   in Loop: Header=BB28_98 Depth=1
	jmp	.LBB28_100
.LBB28_100:                             #   in Loop: Header=BB28_98 Depth=1
	movq	-1480(%rbp), %rdi
	movslq	-24(%rbp), %rdx
	shlq	$2, %rdx
	xorl	%esi, %esi
	callq	cudaMemset@PLT
	movl	%eax, -1552(%rbp)
	cmpl	$0, -1552(%rbp)
	je	.LBB28_102
# %bb.101:
	movl	-1552(%rbp), %edi
	callq	cudaGetErrorString@PLT
	movq	%rax, %rcx
	leaq	.L.str.2(%rip), %rdi
	leaq	.L.str.1(%rip), %rsi
	movl	$192, %edx
	movb	$0, %al
	callq	printf@PLT
	movl	$1, %edi
	callq	exit@PLT
.LBB28_102:                             #   in Loop: Header=BB28_98 Depth=1
	jmp	.LBB28_103
.LBB28_103:                             #   in Loop: Header=BB28_98 Depth=1
	jmp	.LBB28_104
.LBB28_104:                             #   in Loop: Header=BB28_98 Depth=1
	movl	-1544(%rbp), %esi
	leaq	-1568(%rbp), %rdi
	movl	$1, %ecx
	movl	%ecx, %edx
	callq	_ZN4dim3C2Ejjj
	movl	-1540(%rbp), %esi
	leaq	-1584(%rbp), %rdi
	movl	$1, %ecx
	movl	%ecx, %edx
	callq	_ZN4dim3C2Ejjj
	movq	-1568(%rbp), %rax
	movq	%rax, -1600(%rbp)
	movl	-1560(%rbp), %eax
	movl	%eax, -1592(%rbp)
	movq	-1600(%rbp), %rdi
	movl	-1592(%rbp), %esi
	movq	-1584(%rbp), %rax
	movq	%rax, -1616(%rbp)
	movl	-1576(%rbp), %eax
	movl	%eax, -1608(%rbp)
	movq	-1616(%rbp), %rdx
	movl	-1608(%rbp), %ecx
	xorl	%eax, %eax
	movl	%eax, %r9d
	movq	%r9, %r8
	callq	__cudaPushCallConfiguration@PLT
	cmpl	$0, %eax
	jne	.LBB28_106
# %bb.105:                              #   in Loop: Header=BB28_98 Depth=1
	movq	-1456(%rbp), %rdi
	movq	-1464(%rbp), %rsi
	movq	-1488(%rbp), %rdx
	movl	-20(%rbp), %ecx
	movl	-24(%rbp), %r8d
	callq	_Z27__device_stub__forward_passPfS_S_ii
.LBB28_106:                             #   in Loop: Header=BB28_98 Depth=1
	jmp	.LBB28_107
.LBB28_107:                             #   in Loop: Header=BB28_98 Depth=1
	callq	cudaGetLastError@PLT
	movl	%eax, -1620(%rbp)
	cmpl	$0, -1620(%rbp)
	je	.LBB28_109
# %bb.108:
	movl	-1620(%rbp), %edi
	callq	cudaGetErrorString@PLT
	movq	%rax, %rcx
	leaq	.L.str.2(%rip), %rdi
	leaq	.L.str.1(%rip), %rsi
	movl	$196, %edx
	movb	$0, %al
	callq	printf@PLT
	movl	$1, %edi
	callq	exit@PLT
.LBB28_109:                             #   in Loop: Header=BB28_98 Depth=1
	jmp	.LBB28_110
.LBB28_110:                             #   in Loop: Header=BB28_98 Depth=1
	jmp	.LBB28_111
.LBB28_111:                             #   in Loop: Header=BB28_98 Depth=1
	movl	-1544(%rbp), %esi
	leaq	-1632(%rbp), %rdi
	movl	$1, %ecx
	movl	%ecx, %edx
	callq	_ZN4dim3C2Ejjj
	movl	-1540(%rbp), %esi
	leaq	-1648(%rbp), %rdi
	movl	$1, %ecx
	movl	%ecx, %edx
	callq	_ZN4dim3C2Ejjj
	movq	-1632(%rbp), %rax
	movq	%rax, -1664(%rbp)
	movl	-1624(%rbp), %eax
	movl	%eax, -1656(%rbp)
	movq	-1664(%rbp), %rdi
	movl	-1656(%rbp), %esi
	movq	-1648(%rbp), %rax
	movq	%rax, -1680(%rbp)
	movl	-1640(%rbp), %eax
	movl	%eax, -1672(%rbp)
	movq	-1680(%rbp), %rdx
	movl	-1672(%rbp), %ecx
	xorl	%eax, %eax
	movl	%eax, %r9d
	movq	%r9, %r8
	callq	__cudaPushCallConfiguration@PLT
	cmpl	$0, %eax
	jne	.LBB28_113
# %bb.112:                              #   in Loop: Header=BB28_98 Depth=1
	movq	-1488(%rbp), %rdi
	movq	-1472(%rbp), %rsi
	movq	-1496(%rbp), %rdx
	movl	-20(%rbp), %ecx
	callq	_Z28__device_stub__backward_passPfS_S_i
.LBB28_113:                             #   in Loop: Header=BB28_98 Depth=1
	jmp	.LBB28_114
.LBB28_114:                             #   in Loop: Header=BB28_98 Depth=1
	callq	cudaGetLastError@PLT
	movl	%eax, -1684(%rbp)
	cmpl	$0, -1684(%rbp)
	je	.LBB28_116
# %bb.115:
	movl	-1684(%rbp), %edi
	callq	cudaGetErrorString@PLT
	movq	%rax, %rcx
	leaq	.L.str.2(%rip), %rdi
	leaq	.L.str.1(%rip), %rsi
	movl	$200, %edx
	movb	$0, %al
	callq	printf@PLT
	movl	$1, %edi
	callq	exit@PLT
.LBB28_116:                             #   in Loop: Header=BB28_98 Depth=1
	jmp	.LBB28_117
.LBB28_117:                             #   in Loop: Header=BB28_98 Depth=1
	jmp	.LBB28_118
.LBB28_118:                             #   in Loop: Header=BB28_98 Depth=1
	movl	-24(%rbp), %eax
	addl	-1540(%rbp), %eax
	subl	$1, %eax
	cltd
	idivl	-1540(%rbp)
	movl	%eax, %esi
	leaq	-1696(%rbp), %rdi
	movl	$1, %ecx
	movl	%ecx, %edx
	callq	_ZN4dim3C2Ejjj
	movl	-1540(%rbp), %esi
	leaq	-1712(%rbp), %rdi
	movl	$1, %ecx
	movl	%ecx, %edx
	callq	_ZN4dim3C2Ejjj
	movq	-1696(%rbp), %rax
	movq	%rax, -1728(%rbp)
	movl	-1688(%rbp), %eax
	movl	%eax, -1720(%rbp)
	movq	-1728(%rbp), %rdi
	movl	-1720(%rbp), %esi
	movq	-1712(%rbp), %rax
	movq	%rax, -1744(%rbp)
	movl	-1704(%rbp), %eax
	movl	%eax, -1736(%rbp)
	movq	-1744(%rbp), %rdx
	movl	-1736(%rbp), %ecx
	xorl	%eax, %eax
	movl	%eax, %r9d
	movq	%r9, %r8
	callq	__cudaPushCallConfiguration@PLT
	cmpl	$0, %eax
	jne	.LBB28_120
# %bb.119:                              #   in Loop: Header=BB28_98 Depth=1
	movq	-1456(%rbp), %rdi
	movq	-1496(%rbp), %rsi
	movq	-1480(%rbp), %rdx
	movl	-20(%rbp), %ecx
	movl	-24(%rbp), %r8d
	callq	_Z25__device_stub__calc_gradsPfS_S_ii
.LBB28_120:                             #   in Loop: Header=BB28_98 Depth=1
	jmp	.LBB28_121
.LBB28_121:                             #   in Loop: Header=BB28_98 Depth=1
	callq	cudaGetLastError@PLT
	movl	%eax, -1748(%rbp)
	cmpl	$0, -1748(%rbp)
	je	.LBB28_123
# %bb.122:
	movl	-1748(%rbp), %edi
	callq	cudaGetErrorString@PLT
	movq	%rax, %rcx
	leaq	.L.str.2(%rip), %rdi
	leaq	.L.str.1(%rip), %rsi
	movl	$204, %edx
	movb	$0, %al
	callq	printf@PLT
	movl	$1, %edi
	callq	exit@PLT
.LBB28_123:                             #   in Loop: Header=BB28_98 Depth=1
	jmp	.LBB28_124
.LBB28_124:                             #   in Loop: Header=BB28_98 Depth=1
	jmp	.LBB28_125
.LBB28_125:                             #   in Loop: Header=BB28_98 Depth=1
	movl	-32(%rbp), %esi
	movq	-1480(%rbp), %rax
	movss	(%rax), %xmm0                   # xmm0 = mem[0],zero,zero,zero
	cvtss2sd	%xmm0, %xmm0
	movq	-1480(%rbp), %rax
	movq	%rax, -1832(%rbp)               # 8-byte Spill
	movl	-24(%rbp), %eax
	movl	$2, %ecx
	cltd
	idivl	%ecx
	movl	%eax, %ecx
	movq	-1832(%rbp), %rax               # 8-byte Reload
	movslq	%ecx, %rcx
	movss	(%rax,%rcx,4), %xmm1            # xmm1 = mem[0],zero,zero,zero
	cvtss2sd	%xmm1, %xmm1
	movq	-1480(%rbp), %rax
	movl	-24(%rbp), %ecx
	subl	$1, %ecx
	movslq	%ecx, %rcx
	movss	(%rax,%rcx,4), %xmm2            # xmm2 = mem[0],zero,zero,zero
	cvtss2sd	%xmm2, %xmm2
	leaq	.L.str.4(%rip), %rdi
	movb	$3, %al
	callq	printf@PLT
# %bb.126:                              #   in Loop: Header=BB28_98 Depth=1
	movq	-1480(%rbp), %rdi
	movq	-1480(%rbp), %rsi
	movslq	-24(%rbp), %rdx
	movq	-1248(%rbp), %r9
	movq	-1256(%rbp), %rax
	movl	$7, %ecx
	xorl	%r8d, %r8d
	subq	$16, %rsp
	movq	%rax, (%rsp)
	callq	ncclAllReduce@PLT
	addq	$16, %rsp
	movl	%eax, -1752(%rbp)
	cmpl	$0, -1752(%rbp)
	je	.LBB28_128
# %bb.127:
	movl	-1752(%rbp), %edi
	callq	ncclGetErrorString@PLT
	movq	%rax, %rcx
	leaq	.L.str.3(%rip), %rdi
	leaq	.L.str.1(%rip), %rsi
	movl	$209, %edx
	movb	$0, %al
	callq	printf@PLT
	movl	$1, %edi
	callq	exit@PLT
.LBB28_128:                             #   in Loop: Header=BB28_98 Depth=1
	jmp	.LBB28_129
.LBB28_129:                             #   in Loop: Header=BB28_98 Depth=1
	jmp	.LBB28_130
.LBB28_130:                             #   in Loop: Header=BB28_98 Depth=1
	jmp	.LBB28_131
.LBB28_131:                             #   in Loop: Header=BB28_98 Depth=1
	movq	-1256(%rbp), %rdi
	callq	cudaStreamSynchronize@PLT
	movl	%eax, -1756(%rbp)
	cmpl	$0, -1756(%rbp)
	je	.LBB28_133
# %bb.132:
	movl	-1756(%rbp), %edi
	callq	cudaGetErrorString@PLT
	movq	%rax, %rcx
	leaq	.L.str.2(%rip), %rdi
	leaq	.L.str.1(%rip), %rsi
	movl	$210, %edx
	movb	$0, %al
	callq	printf@PLT
	movl	$1, %edi
	callq	exit@PLT
.LBB28_133:                             #   in Loop: Header=BB28_98 Depth=1
	jmp	.LBB28_134
.LBB28_134:                             #   in Loop: Header=BB28_98 Depth=1
	jmp	.LBB28_135
.LBB28_135:                             #   in Loop: Header=BB28_98 Depth=1
	jmp	.LBB28_136
.LBB28_136:                             #   in Loop: Header=BB28_98 Depth=1
	movl	-1548(%rbp), %eax
	addl	$1, %eax
	movl	%eax, -1548(%rbp)
	jmp	.LBB28_98
.LBB28_137:
	jmp	.LBB28_138
.LBB28_138:
	movq	-1424(%rbp), %rdi
	movq	-1480(%rbp), %rsi
	movslq	-24(%rbp), %rdx
	shlq	$2, %rdx
	movl	$2, %ecx
	callq	cudaMemcpy@PLT
	movl	%eax, -1760(%rbp)
	cmpl	$0, -1760(%rbp)
	je	.LBB28_140
# %bb.139:
	movl	-1760(%rbp), %edi
	callq	cudaGetErrorString@PLT
	movq	%rax, %rcx
	leaq	.L.str.2(%rip), %rdi
	leaq	.L.str.1(%rip), %rsi
	movl	$215, %edx
	movb	$0, %al
	callq	printf@PLT
	movl	$1, %edi
	callq	exit@PLT
.LBB28_140:
	jmp	.LBB28_141
.LBB28_141:
	jmp	.LBB28_142
.LBB28_142:
	movl	-32(%rbp), %esi
	movq	-1480(%rbp), %rax
	movss	(%rax), %xmm0                   # xmm0 = mem[0],zero,zero,zero
	cvtss2sd	%xmm0, %xmm0
	movq	-1480(%rbp), %rax
	movq	%rax, -1840(%rbp)               # 8-byte Spill
	movl	-24(%rbp), %eax
	movl	$2, %ecx
	cltd
	idivl	%ecx
	movl	%eax, %ecx
	movq	-1840(%rbp), %rax               # 8-byte Reload
	movslq	%ecx, %rcx
	movss	(%rax,%rcx,4), %xmm1            # xmm1 = mem[0],zero,zero,zero
	cvtss2sd	%xmm1, %xmm1
	movq	-1480(%rbp), %rax
	movl	-24(%rbp), %ecx
	subl	$1, %ecx
	movslq	%ecx, %rcx
	movss	(%rax,%rcx,4), %xmm2            # xmm2 = mem[0],zero,zero,zero
	cvtss2sd	%xmm2, %xmm2
	leaq	.L.str.5(%rip), %rdi
	movb	$3, %al
	callq	printf@PLT
# %bb.143:
	movq	-1456(%rbp), %rdi
	callq	cudaFree@PLT
	movl	%eax, -1764(%rbp)
	cmpl	$0, -1764(%rbp)
	je	.LBB28_145
# %bb.144:
	movl	-1764(%rbp), %edi
	callq	cudaGetErrorString@PLT
	movq	%rax, %rcx
	leaq	.L.str.2(%rip), %rdi
	leaq	.L.str.1(%rip), %rsi
	movl	$219, %edx
	movb	$0, %al
	callq	printf@PLT
	movl	$1, %edi
	callq	exit@PLT
.LBB28_145:
	jmp	.LBB28_146
.LBB28_146:
	jmp	.LBB28_147
.LBB28_147:
	jmp	.LBB28_148
.LBB28_148:
	movq	-1464(%rbp), %rdi
	callq	cudaFree@PLT
	movl	%eax, -1768(%rbp)
	cmpl	$0, -1768(%rbp)
	je	.LBB28_150
# %bb.149:
	movl	-1768(%rbp), %edi
	callq	cudaGetErrorString@PLT
	movq	%rax, %rcx
	leaq	.L.str.2(%rip), %rdi
	leaq	.L.str.1(%rip), %rsi
	movl	$220, %edx
	movb	$0, %al
	callq	printf@PLT
	movl	$1, %edi
	callq	exit@PLT
.LBB28_150:
	jmp	.LBB28_151
.LBB28_151:
	jmp	.LBB28_152
.LBB28_152:
	jmp	.LBB28_153
.LBB28_153:
	movq	-1480(%rbp), %rdi
	callq	cudaFree@PLT
	movl	%eax, -1772(%rbp)
	cmpl	$0, -1772(%rbp)
	je	.LBB28_155
# %bb.154:
	movl	-1772(%rbp), %edi
	callq	cudaGetErrorString@PLT
	movq	%rax, %rcx
	leaq	.L.str.2(%rip), %rdi
	leaq	.L.str.1(%rip), %rsi
	movl	$221, %edx
	movb	$0, %al
	callq	printf@PLT
	movl	$1, %edi
	callq	exit@PLT
.LBB28_155:
	jmp	.LBB28_156
.LBB28_156:
	jmp	.LBB28_157
.LBB28_157:
	jmp	.LBB28_158
.LBB28_158:
	movq	-1472(%rbp), %rdi
	callq	cudaFree@PLT
	movl	%eax, -1776(%rbp)
	cmpl	$0, -1776(%rbp)
	je	.LBB28_160
# %bb.159:
	movl	-1776(%rbp), %edi
	callq	cudaGetErrorString@PLT
	movq	%rax, %rcx
	leaq	.L.str.2(%rip), %rdi
	leaq	.L.str.1(%rip), %rsi
	movl	$222, %edx
	movb	$0, %al
	callq	printf@PLT
	movl	$1, %edi
	callq	exit@PLT
.LBB28_160:
	jmp	.LBB28_161
.LBB28_161:
	jmp	.LBB28_162
.LBB28_162:
	jmp	.LBB28_163
.LBB28_163:
	movq	-1488(%rbp), %rdi
	callq	cudaFree@PLT
	movl	%eax, -1780(%rbp)
	cmpl	$0, -1780(%rbp)
	je	.LBB28_165
# %bb.164:
	movl	-1780(%rbp), %edi
	callq	cudaGetErrorString@PLT
	movq	%rax, %rcx
	leaq	.L.str.2(%rip), %rdi
	leaq	.L.str.1(%rip), %rsi
	movl	$223, %edx
	movb	$0, %al
	callq	printf@PLT
	movl	$1, %edi
	callq	exit@PLT
.LBB28_165:
	jmp	.LBB28_166
.LBB28_166:
	jmp	.LBB28_167
.LBB28_167:
	jmp	.LBB28_168
.LBB28_168:
	movq	-1496(%rbp), %rdi
	callq	cudaFree@PLT
	movl	%eax, -1784(%rbp)
	cmpl	$0, -1784(%rbp)
	je	.LBB28_170
# %bb.169:
	movl	-1784(%rbp), %edi
	callq	cudaGetErrorString@PLT
	movq	%rax, %rcx
	leaq	.L.str.2(%rip), %rdi
	leaq	.L.str.1(%rip), %rsi
	movl	$224, %edx
	movb	$0, %al
	callq	printf@PLT
	movl	$1, %edi
	callq	exit@PLT
.LBB28_170:
	jmp	.LBB28_171
.LBB28_171:
	jmp	.LBB28_172
.LBB28_172:
	movq	-1408(%rbp), %rdi
	callq	free@PLT
	movq	-1416(%rbp), %rdi
	callq	free@PLT
	movq	-1424(%rbp), %rdi
	callq	free@PLT
	movq	-1432(%rbp), %rdi
	callq	free@PLT
# %bb.173:
	movq	-1248(%rbp), %rdi
	callq	ncclCommDestroy@PLT
	movl	%eax, -1788(%rbp)
	cmpl	$0, -1788(%rbp)
	je	.LBB28_175
# %bb.174:
	movl	-1788(%rbp), %edi
	callq	ncclGetErrorString@PLT
	movq	%rax, %rcx
	leaq	.L.str.3(%rip), %rdi
	leaq	.L.str.1(%rip), %rsi
	movl	$233, %edx
	movb	$0, %al
	callq	printf@PLT
	movl	$1, %edi
	callq	exit@PLT
.LBB28_175:
	jmp	.LBB28_176
.LBB28_176:
	jmp	.LBB28_177
.LBB28_177:
	jmp	.LBB28_178
.LBB28_178:
	callq	MPI_Finalize@PLT
	movl	%eax, -1792(%rbp)
	cmpl	$0, -1792(%rbp)
	je	.LBB28_180
# %bb.179:
	movl	-1792(%rbp), %ecx
	leaq	.L.str(%rip), %rdi
	leaq	.L.str.1(%rip), %rsi
	movl	$236, %edx
	movb	$0, %al
	callq	printf@PLT
	movl	$1, %edi
	callq	exit@PLT
.LBB28_180:
	jmp	.LBB28_181
.LBB28_181:
	jmp	.LBB28_182
.LBB28_182:
	movl	-32(%rbp), %esi
	leaq	.L.str.6(%rip), %rdi
	movb	$0, %al
	callq	printf@PLT
	movl	$0, -4(%rbp)
	movq	-64(%rbp), %rax
	movq	%rax, %rsp
	movl	-4(%rbp), %eax
	movq	%rbp, %rsp
	popq	%rbp
	.cfi_def_cfa %rsp, 8
	retq
.Lfunc_end28:
	.size	main, .Lfunc_end28-main
	.cfi_endproc
                                        # -- End function
	.p2align	4, 0x90                         # -- Begin function _ZL11getHostNamePci
	.type	_ZL11getHostNamePci,@function
_ZL11getHostNamePci:                    # @_ZL11getHostNamePci
	.cfi_startproc
# %bb.0:
	pushq	%rbp
	.cfi_def_cfa_offset 16
	.cfi_offset %rbp, -16
	movq	%rsp, %rbp
	.cfi_def_cfa_register %rbp
	subq	$16, %rsp
	movq	%rdi, -8(%rbp)
	movl	%esi, -12(%rbp)
	movq	-8(%rbp), %rdi
	movslq	-12(%rbp), %rsi
	callq	gethostname@PLT
	movl	$0, -16(%rbp)
.LBB29_1:                               # =>This Inner Loop Header: Depth=1
	movl	-16(%rbp), %eax
	cmpl	-12(%rbp), %eax
	jge	.LBB29_6
# %bb.2:                                #   in Loop: Header=BB29_1 Depth=1
	movq	-8(%rbp), %rax
	movslq	-16(%rbp), %rcx
	movsbl	(%rax,%rcx), %eax
	cmpl	$46, %eax
	jne	.LBB29_4
# %bb.3:
	movq	-8(%rbp), %rax
	movslq	-16(%rbp), %rcx
	movb	$0, (%rax,%rcx)
	jmp	.LBB29_6
.LBB29_4:                               #   in Loop: Header=BB29_1 Depth=1
	jmp	.LBB29_5
.LBB29_5:                               #   in Loop: Header=BB29_1 Depth=1
	movl	-16(%rbp), %eax
	addl	$1, %eax
	movl	%eax, -16(%rbp)
	jmp	.LBB29_1
.LBB29_6:
	addq	$16, %rsp
	popq	%rbp
	.cfi_def_cfa %rsp, 8
	retq
.Lfunc_end29:
	.size	_ZL11getHostNamePci, .Lfunc_end29-_ZL11getHostNamePci
	.cfi_endproc
                                        # -- End function
	.p2align	4, 0x90                         # -- Begin function _ZL11getHostHashPKc
	.type	_ZL11getHostHashPKc,@function
_ZL11getHostHashPKc:                    # @_ZL11getHostHashPKc
	.cfi_startproc
# %bb.0:
	pushq	%rbp
	.cfi_def_cfa_offset 16
	.cfi_offset %rbp, -16
	movq	%rsp, %rbp
	.cfi_def_cfa_register %rbp
	movq	%rdi, -8(%rbp)
	movq	$5381, -16(%rbp)                # imm = 0x1505
	movl	$0, -20(%rbp)
.LBB30_1:                               # =>This Inner Loop Header: Depth=1
	movq	-8(%rbp), %rax
	movslq	-20(%rbp), %rcx
	movsbl	(%rax,%rcx), %eax
	cmpl	$0, %eax
	je	.LBB30_4
# %bb.2:                                #   in Loop: Header=BB30_1 Depth=1
	movq	-16(%rbp), %rax
	shlq	$5, %rax
	addq	-16(%rbp), %rax
	movq	-8(%rbp), %rcx
	movslq	-20(%rbp), %rdx
	movsbq	(%rcx,%rdx), %rcx
	xorq	%rcx, %rax
	movq	%rax, -16(%rbp)
# %bb.3:                                #   in Loop: Header=BB30_1 Depth=1
	movl	-20(%rbp), %eax
	addl	$1, %eax
	movl	%eax, -20(%rbp)
	jmp	.LBB30_1
.LBB30_4:
	movq	-16(%rbp), %rax
	popq	%rbp
	.cfi_def_cfa %rsp, 8
	retq
.Lfunc_end30:
	.size	_ZL11getHostHashPKc, .Lfunc_end30-_ZL11getHostHashPKc
	.cfi_endproc
                                        # -- End function
	.p2align	4, 0x90                         # -- Begin function _ZL10cudaMallocIfE9cudaErrorPPT_m
	.type	_ZL10cudaMallocIfE9cudaErrorPPT_m,@function
_ZL10cudaMallocIfE9cudaErrorPPT_m:      # @_ZL10cudaMallocIfE9cudaErrorPPT_m
	.cfi_startproc
# %bb.0:
	pushq	%rbp
	.cfi_def_cfa_offset 16
	.cfi_offset %rbp, -16
	movq	%rsp, %rbp
	.cfi_def_cfa_register %rbp
	subq	$16, %rsp
	movq	%rdi, -8(%rbp)
	movq	%rsi, -16(%rbp)
	movq	-8(%rbp), %rdi
	movq	-16(%rbp), %rsi
	callq	cudaMalloc@PLT
	addq	$16, %rsp
	popq	%rbp
	.cfi_def_cfa %rsp, 8
	retq
.Lfunc_end31:
	.size	_ZL10cudaMallocIfE9cudaErrorPPT_m, .Lfunc_end31-_ZL10cudaMallocIfE9cudaErrorPPT_m
	.cfi_endproc
                                        # -- End function
	.section	.text._ZN4dim3C2Ejjj,"axG",@progbits,_ZN4dim3C2Ejjj,comdat
	.weak	_ZN4dim3C2Ejjj                  # -- Begin function _ZN4dim3C2Ejjj
	.p2align	4, 0x90
	.type	_ZN4dim3C2Ejjj,@function
_ZN4dim3C2Ejjj:                         # @_ZN4dim3C2Ejjj
	.cfi_startproc
# %bb.0:
	pushq	%rbp
	.cfi_def_cfa_offset 16
	.cfi_offset %rbp, -16
	movq	%rsp, %rbp
	.cfi_def_cfa_register %rbp
	movq	%rdi, -8(%rbp)
	movl	%esi, -12(%rbp)
	movl	%edx, -16(%rbp)
	movl	%ecx, -20(%rbp)
	movq	-8(%rbp), %rax
	movl	-12(%rbp), %ecx
	movl	%ecx, (%rax)
	movl	-16(%rbp), %ecx
	movl	%ecx, 4(%rax)
	movl	-20(%rbp), %ecx
	movl	%ecx, 8(%rax)
	popq	%rbp
	.cfi_def_cfa %rsp, 8
	retq
.Lfunc_end32:
	.size	_ZN4dim3C2Ejjj, .Lfunc_end32-_ZN4dim3C2Ejjj
	.cfi_endproc
                                        # -- End function
	.section	.text._ZN3MPI8DatatypeD2Ev,"axG",@progbits,_ZN3MPI8DatatypeD2Ev,comdat
	.weak	_ZN3MPI8DatatypeD2Ev            # -- Begin function _ZN3MPI8DatatypeD2Ev
	.p2align	4, 0x90
	.type	_ZN3MPI8DatatypeD2Ev,@function
_ZN3MPI8DatatypeD2Ev:                   # @_ZN3MPI8DatatypeD2Ev
	.cfi_startproc
# %bb.0:
	pushq	%rbp
	.cfi_def_cfa_offset 16
	.cfi_offset %rbp, -16
	movq	%rsp, %rbp
	.cfi_def_cfa_register %rbp
	movq	%rdi, -8(%rbp)
	popq	%rbp
	.cfi_def_cfa %rsp, 8
	retq
.Lfunc_end33:
	.size	_ZN3MPI8DatatypeD2Ev, .Lfunc_end33-_ZN3MPI8DatatypeD2Ev
	.cfi_endproc
                                        # -- End function
	.section	.text._ZN3MPI8DatatypeD0Ev,"axG",@progbits,_ZN3MPI8DatatypeD0Ev,comdat
	.weak	_ZN3MPI8DatatypeD0Ev            # -- Begin function _ZN3MPI8DatatypeD0Ev
	.p2align	4, 0x90
	.type	_ZN3MPI8DatatypeD0Ev,@function
_ZN3MPI8DatatypeD0Ev:                   # @_ZN3MPI8DatatypeD0Ev
	.cfi_startproc
# %bb.0:
	pushq	%rbp
	.cfi_def_cfa_offset 16
	.cfi_offset %rbp, -16
	movq	%rsp, %rbp
	.cfi_def_cfa_register %rbp
	subq	$16, %rsp
	movq	%rdi, -8(%rbp)
	movq	-8(%rbp), %rdi
	movq	%rdi, -16(%rbp)                 # 8-byte Spill
	callq	_ZN3MPI8DatatypeD2Ev
	movq	-16(%rbp), %rdi                 # 8-byte Reload
	callq	_ZdlPv@PLT
	addq	$16, %rsp
	popq	%rbp
	.cfi_def_cfa %rsp, 8
	retq
.Lfunc_end34:
	.size	_ZN3MPI8DatatypeD0Ev, .Lfunc_end34-_ZN3MPI8DatatypeD0Ev
	.cfi_endproc
                                        # -- End function
	.section	.text._ZNK3MPI8Datatype13Create_vectorEiii,"axG",@progbits,_ZNK3MPI8Datatype13Create_vectorEiii,comdat
	.weak	_ZNK3MPI8Datatype13Create_vectorEiii # -- Begin function _ZNK3MPI8Datatype13Create_vectorEiii
	.p2align	4, 0x90
	.type	_ZNK3MPI8Datatype13Create_vectorEiii,@function
_ZNK3MPI8Datatype13Create_vectorEiii:   # @_ZNK3MPI8Datatype13Create_vectorEiii
	.cfi_startproc
# %bb.0:
	pushq	%rbp
	.cfi_def_cfa_offset 16
	.cfi_offset %rbp, -16
	movq	%rsp, %rbp
	.cfi_def_cfa_register %rbp
	subq	$64, %rsp
	movq	%rdi, -56(%rbp)                 # 8-byte Spill
	movq	%rdi, %rax
	movq	%rax, -48(%rbp)                 # 8-byte Spill
	movq	%rdi, -8(%rbp)
	movq	%rsi, -16(%rbp)
	movl	%edx, -20(%rbp)
	movl	%ecx, -24(%rbp)
	movl	%r8d, -28(%rbp)
	movq	-16(%rbp), %rax
	movl	-20(%rbp), %edi
	movl	-24(%rbp), %esi
	movl	-28(%rbp), %edx
	movq	8(%rax), %rcx
	leaq	-40(%rbp), %r8
	callq	MPI_Type_vector@PLT
	movq	-56(%rbp), %rdi                 # 8-byte Reload
	movq	-40(%rbp), %rsi
	callq	_ZN3MPI8DatatypeC2EP15ompi_datatype_t
	movq	-48(%rbp), %rax                 # 8-byte Reload
	addq	$64, %rsp
	popq	%rbp
	.cfi_def_cfa %rsp, 8
	retq
.Lfunc_end35:
	.size	_ZNK3MPI8Datatype13Create_vectorEiii, .Lfunc_end35-_ZNK3MPI8Datatype13Create_vectorEiii
	.cfi_endproc
                                        # -- End function
	.section	.text._ZNK3MPI8Datatype14Create_indexedEiPKiS2_,"axG",@progbits,_ZNK3MPI8Datatype14Create_indexedEiPKiS2_,comdat
	.weak	_ZNK3MPI8Datatype14Create_indexedEiPKiS2_ # -- Begin function _ZNK3MPI8Datatype14Create_indexedEiPKiS2_
	.p2align	4, 0x90
	.type	_ZNK3MPI8Datatype14Create_indexedEiPKiS2_,@function
_ZNK3MPI8Datatype14Create_indexedEiPKiS2_: # @_ZNK3MPI8Datatype14Create_indexedEiPKiS2_
	.cfi_startproc
# %bb.0:
	pushq	%rbp
	.cfi_def_cfa_offset 16
	.cfi_offset %rbp, -16
	movq	%rsp, %rbp
	.cfi_def_cfa_register %rbp
	subq	$64, %rsp
	movq	%rdi, -64(%rbp)                 # 8-byte Spill
	movq	%rdi, %rax
	movq	%rax, -56(%rbp)                 # 8-byte Spill
	movq	%rdi, -8(%rbp)
	movq	%rsi, -16(%rbp)
	movl	%edx, -20(%rbp)
	movq	%rcx, -32(%rbp)
	movq	%r8, -40(%rbp)
	movq	-16(%rbp), %rax
	movl	-20(%rbp), %edi
	movq	-32(%rbp), %rsi
	movq	-40(%rbp), %rdx
	movq	8(%rax), %rcx
	leaq	-48(%rbp), %r8
	callq	MPI_Type_indexed@PLT
	movq	-64(%rbp), %rdi                 # 8-byte Reload
	movq	-48(%rbp), %rsi
	callq	_ZN3MPI8DatatypeC2EP15ompi_datatype_t
	movq	-56(%rbp), %rax                 # 8-byte Reload
	addq	$64, %rsp
	popq	%rbp
	.cfi_def_cfa %rsp, 8
	retq
.Lfunc_end36:
	.size	_ZNK3MPI8Datatype14Create_indexedEiPKiS2_, .Lfunc_end36-_ZNK3MPI8Datatype14Create_indexedEiPKiS2_
	.cfi_endproc
                                        # -- End function
	.section	.text._ZNK3MPI8Datatype15Create_hindexedEiPKiPKl,"axG",@progbits,_ZNK3MPI8Datatype15Create_hindexedEiPKiPKl,comdat
	.weak	_ZNK3MPI8Datatype15Create_hindexedEiPKiPKl # -- Begin function _ZNK3MPI8Datatype15Create_hindexedEiPKiPKl
	.p2align	4, 0x90
	.type	_ZNK3MPI8Datatype15Create_hindexedEiPKiPKl,@function
_ZNK3MPI8Datatype15Create_hindexedEiPKiPKl: # @_ZNK3MPI8Datatype15Create_hindexedEiPKiPKl
	.cfi_startproc
# %bb.0:
	pushq	%rbp
	.cfi_def_cfa_offset 16
	.cfi_offset %rbp, -16
	movq	%rsp, %rbp
	.cfi_def_cfa_register %rbp
	subq	$64, %rsp
	movq	%rdi, -64(%rbp)                 # 8-byte Spill
	movq	%rdi, %rax
	movq	%rax, -56(%rbp)                 # 8-byte Spill
	movq	%rdi, -8(%rbp)
	movq	%rsi, -16(%rbp)
	movl	%edx, -20(%rbp)
	movq	%rcx, -32(%rbp)
	movq	%r8, -40(%rbp)
	movq	-16(%rbp), %rax
	movl	-20(%rbp), %edi
	movq	-32(%rbp), %rsi
	movq	-40(%rbp), %rdx
	movq	8(%rax), %rcx
	leaq	-48(%rbp), %r8
	callq	MPI_Type_create_hindexed@PLT
	movq	-64(%rbp), %rdi                 # 8-byte Reload
	movq	-48(%rbp), %rsi
	callq	_ZN3MPI8DatatypeC2EP15ompi_datatype_t
	movq	-56(%rbp), %rax                 # 8-byte Reload
	addq	$64, %rsp
	popq	%rbp
	.cfi_def_cfa %rsp, 8
	retq
.Lfunc_end37:
	.size	_ZNK3MPI8Datatype15Create_hindexedEiPKiPKl, .Lfunc_end37-_ZNK3MPI8Datatype15Create_hindexedEiPKiPKl
	.cfi_endproc
                                        # -- End function
	.section	.text._ZNK3MPI8Datatype14Create_hvectorEiil,"axG",@progbits,_ZNK3MPI8Datatype14Create_hvectorEiil,comdat
	.weak	_ZNK3MPI8Datatype14Create_hvectorEiil # -- Begin function _ZNK3MPI8Datatype14Create_hvectorEiil
	.p2align	4, 0x90
	.type	_ZNK3MPI8Datatype14Create_hvectorEiil,@function
_ZNK3MPI8Datatype14Create_hvectorEiil:  # @_ZNK3MPI8Datatype14Create_hvectorEiil
	.cfi_startproc
# %bb.0:
	pushq	%rbp
	.cfi_def_cfa_offset 16
	.cfi_offset %rbp, -16
	movq	%rsp, %rbp
	.cfi_def_cfa_register %rbp
	subq	$64, %rsp
	movq	%rdi, -56(%rbp)                 # 8-byte Spill
	movq	%rdi, %rax
	movq	%rax, -48(%rbp)                 # 8-byte Spill
	movq	%rdi, -8(%rbp)
	movq	%rsi, -16(%rbp)
	movl	%edx, -20(%rbp)
	movl	%ecx, -24(%rbp)
	movq	%r8, -32(%rbp)
	movq	-16(%rbp), %rax
	movl	-20(%rbp), %edi
	movl	-24(%rbp), %esi
	movq	-32(%rbp), %rdx
	movq	8(%rax), %rcx
	leaq	-40(%rbp), %r8
	callq	MPI_Type_create_hvector@PLT
	movq	-56(%rbp), %rdi                 # 8-byte Reload
	movq	-40(%rbp), %rsi
	callq	_ZN3MPI8DatatypeC2EP15ompi_datatype_t
	movq	-48(%rbp), %rax                 # 8-byte Reload
	addq	$64, %rsp
	popq	%rbp
	.cfi_def_cfa %rsp, 8
	retq
.Lfunc_end38:
	.size	_ZNK3MPI8Datatype14Create_hvectorEiil, .Lfunc_end38-_ZNK3MPI8Datatype14Create_hvectorEiil
	.cfi_endproc
                                        # -- End function
	.section	.text._ZNK3MPI8Datatype20Create_indexed_blockEiiPKi,"axG",@progbits,_ZNK3MPI8Datatype20Create_indexed_blockEiiPKi,comdat
	.weak	_ZNK3MPI8Datatype20Create_indexed_blockEiiPKi # -- Begin function _ZNK3MPI8Datatype20Create_indexed_blockEiiPKi
	.p2align	4, 0x90
	.type	_ZNK3MPI8Datatype20Create_indexed_blockEiiPKi,@function
_ZNK3MPI8Datatype20Create_indexed_blockEiiPKi: # @_ZNK3MPI8Datatype20Create_indexed_blockEiiPKi
	.cfi_startproc
# %bb.0:
	pushq	%rbp
	.cfi_def_cfa_offset 16
	.cfi_offset %rbp, -16
	movq	%rsp, %rbp
	.cfi_def_cfa_register %rbp
	subq	$64, %rsp
	movq	%rdi, -56(%rbp)                 # 8-byte Spill
	movq	%rdi, %rax
	movq	%rax, -48(%rbp)                 # 8-byte Spill
	movq	%rdi, -8(%rbp)
	movq	%rsi, -16(%rbp)
	movl	%edx, -20(%rbp)
	movl	%ecx, -24(%rbp)
	movq	%r8, -32(%rbp)
	movq	-16(%rbp), %rax
	movl	-20(%rbp), %edi
	movl	-24(%rbp), %esi
	movq	-32(%rbp), %rdx
	movq	8(%rax), %rcx
	leaq	-40(%rbp), %r8
	callq	MPI_Type_create_indexed_block@PLT
	movq	-56(%rbp), %rdi                 # 8-byte Reload
	movq	-40(%rbp), %rsi
	callq	_ZN3MPI8DatatypeC2EP15ompi_datatype_t
	movq	-48(%rbp), %rax                 # 8-byte Reload
	addq	$64, %rsp
	popq	%rbp
	.cfi_def_cfa %rsp, 8
	retq
.Lfunc_end39:
	.size	_ZNK3MPI8Datatype20Create_indexed_blockEiiPKi, .Lfunc_end39-_ZNK3MPI8Datatype20Create_indexed_blockEiiPKi
	.cfi_endproc
                                        # -- End function
	.section	.text._ZNK3MPI8Datatype14Create_resizedEll,"axG",@progbits,_ZNK3MPI8Datatype14Create_resizedEll,comdat
	.weak	_ZNK3MPI8Datatype14Create_resizedEll # -- Begin function _ZNK3MPI8Datatype14Create_resizedEll
	.p2align	4, 0x90
	.type	_ZNK3MPI8Datatype14Create_resizedEll,@function
_ZNK3MPI8Datatype14Create_resizedEll:   # @_ZNK3MPI8Datatype14Create_resizedEll
	.cfi_startproc
# %bb.0:
	pushq	%rbp
	.cfi_def_cfa_offset 16
	.cfi_offset %rbp, -16
	movq	%rsp, %rbp
	.cfi_def_cfa_register %rbp
	subq	$64, %rsp
	movq	%rdi, -56(%rbp)                 # 8-byte Spill
	movq	%rdi, %rax
	movq	%rax, -48(%rbp)                 # 8-byte Spill
	movq	%rdi, -8(%rbp)
	movq	%rsi, -16(%rbp)
	movq	%rdx, -24(%rbp)
	movq	%rcx, -32(%rbp)
	movq	-16(%rbp), %rax
	movq	8(%rax), %rdi
	movq	-24(%rbp), %rsi
	movq	-32(%rbp), %rdx
	leaq	-40(%rbp), %rcx
	callq	MPI_Type_create_resized@PLT
	movq	-56(%rbp), %rdi                 # 8-byte Reload
	movq	-40(%rbp), %rsi
	callq	_ZN3MPI8DatatypeC2EP15ompi_datatype_t
	movq	-48(%rbp), %rax                 # 8-byte Reload
	addq	$64, %rsp
	popq	%rbp
	.cfi_def_cfa %rsp, 8
	retq
.Lfunc_end40:
	.size	_ZNK3MPI8Datatype14Create_resizedEll, .Lfunc_end40-_ZNK3MPI8Datatype14Create_resizedEll
	.cfi_endproc
                                        # -- End function
	.section	.text._ZNK3MPI8Datatype8Get_sizeEv,"axG",@progbits,_ZNK3MPI8Datatype8Get_sizeEv,comdat
	.weak	_ZNK3MPI8Datatype8Get_sizeEv    # -- Begin function _ZNK3MPI8Datatype8Get_sizeEv
	.p2align	4, 0x90
	.type	_ZNK3MPI8Datatype8Get_sizeEv,@function
_ZNK3MPI8Datatype8Get_sizeEv:           # @_ZNK3MPI8Datatype8Get_sizeEv
	.cfi_startproc
# %bb.0:
	pushq	%rbp
	.cfi_def_cfa_offset 16
	.cfi_offset %rbp, -16
	movq	%rsp, %rbp
	.cfi_def_cfa_register %rbp
	subq	$16, %rsp
	movq	%rdi, -8(%rbp)
	movq	-8(%rbp), %rax
	movq	8(%rax), %rdi
	leaq	-12(%rbp), %rsi
	callq	MPI_Type_size@PLT
	movl	-12(%rbp), %eax
	addq	$16, %rsp
	popq	%rbp
	.cfi_def_cfa %rsp, 8
	retq
.Lfunc_end41:
	.size	_ZNK3MPI8Datatype8Get_sizeEv, .Lfunc_end41-_ZNK3MPI8Datatype8Get_sizeEv
	.cfi_endproc
                                        # -- End function
	.section	.text._ZNK3MPI8Datatype10Get_extentERlS1_,"axG",@progbits,_ZNK3MPI8Datatype10Get_extentERlS1_,comdat
	.weak	_ZNK3MPI8Datatype10Get_extentERlS1_ # -- Begin function _ZNK3MPI8Datatype10Get_extentERlS1_
	.p2align	4, 0x90
	.type	_ZNK3MPI8Datatype10Get_extentERlS1_,@function
_ZNK3MPI8Datatype10Get_extentERlS1_:    # @_ZNK3MPI8Datatype10Get_extentERlS1_
	.cfi_startproc
# %bb.0:
	pushq	%rbp
	.cfi_def_cfa_offset 16
	.cfi_offset %rbp, -16
	movq	%rsp, %rbp
	.cfi_def_cfa_register %rbp
	subq	$32, %rsp
	movq	%rdi, -8(%rbp)
	movq	%rsi, -16(%rbp)
	movq	%rdx, -24(%rbp)
	movq	-8(%rbp), %rax
	movq	8(%rax), %rdi
	movq	-16(%rbp), %rsi
	movq	-24(%rbp), %rdx
	callq	MPI_Type_get_extent@PLT
	addq	$32, %rsp
	popq	%rbp
	.cfi_def_cfa %rsp, 8
	retq
.Lfunc_end42:
	.size	_ZNK3MPI8Datatype10Get_extentERlS1_, .Lfunc_end42-_ZNK3MPI8Datatype10Get_extentERlS1_
	.cfi_endproc
                                        # -- End function
	.section	.text._ZNK3MPI8Datatype15Get_true_extentERlS1_,"axG",@progbits,_ZNK3MPI8Datatype15Get_true_extentERlS1_,comdat
	.weak	_ZNK3MPI8Datatype15Get_true_extentERlS1_ # -- Begin function _ZNK3MPI8Datatype15Get_true_extentERlS1_
	.p2align	4, 0x90
	.type	_ZNK3MPI8Datatype15Get_true_extentERlS1_,@function
_ZNK3MPI8Datatype15Get_true_extentERlS1_: # @_ZNK3MPI8Datatype15Get_true_extentERlS1_
	.cfi_startproc
# %bb.0:
	pushq	%rbp
	.cfi_def_cfa_offset 16
	.cfi_offset %rbp, -16
	movq	%rsp, %rbp
	.cfi_def_cfa_register %rbp
	subq	$32, %rsp
	movq	%rdi, -8(%rbp)
	movq	%rsi, -16(%rbp)
	movq	%rdx, -24(%rbp)
	movq	-8(%rbp), %rax
	movq	8(%rax), %rdi
	movq	-16(%rbp), %rsi
	movq	-24(%rbp), %rdx
	callq	MPI_Type_get_true_extent@PLT
	addq	$32, %rsp
	popq	%rbp
	.cfi_def_cfa %rsp, 8
	retq
.Lfunc_end43:
	.size	_ZNK3MPI8Datatype15Get_true_extentERlS1_, .Lfunc_end43-_ZNK3MPI8Datatype15Get_true_extentERlS1_
	.cfi_endproc
                                        # -- End function
	.section	.text._ZN3MPI8Datatype6CommitEv,"axG",@progbits,_ZN3MPI8Datatype6CommitEv,comdat
	.weak	_ZN3MPI8Datatype6CommitEv       # -- Begin function _ZN3MPI8Datatype6CommitEv
	.p2align	4, 0x90
	.type	_ZN3MPI8Datatype6CommitEv,@function
_ZN3MPI8Datatype6CommitEv:              # @_ZN3MPI8Datatype6CommitEv
	.cfi_startproc
# %bb.0:
	pushq	%rbp
	.cfi_def_cfa_offset 16
	.cfi_offset %rbp, -16
	movq	%rsp, %rbp
	.cfi_def_cfa_register %rbp
	subq	$16, %rsp
	movq	%rdi, -8(%rbp)
	movq	-8(%rbp), %rdi
	addq	$8, %rdi
	callq	MPI_Type_commit@PLT
	addq	$16, %rsp
	popq	%rbp
	.cfi_def_cfa %rsp, 8
	retq
.Lfunc_end44:
	.size	_ZN3MPI8Datatype6CommitEv, .Lfunc_end44-_ZN3MPI8Datatype6CommitEv
	.cfi_endproc
                                        # -- End function
	.section	.text._ZNK3MPI8Datatype4PackEPKviPviRiRKNS_4CommE,"axG",@progbits,_ZNK3MPI8Datatype4PackEPKviPviRiRKNS_4CommE,comdat
	.weak	_ZNK3MPI8Datatype4PackEPKviPviRiRKNS_4CommE # -- Begin function _ZNK3MPI8Datatype4PackEPKviPviRiRKNS_4CommE
	.p2align	4, 0x90
	.type	_ZNK3MPI8Datatype4PackEPKviPviRiRKNS_4CommE,@function
_ZNK3MPI8Datatype4PackEPKviPviRiRKNS_4CommE: # @_ZNK3MPI8Datatype4PackEPKviPviRiRKNS_4CommE
	.cfi_startproc
# %bb.0:
	pushq	%rbp
	.cfi_def_cfa_offset 16
	.cfi_offset %rbp, -16
	movq	%rsp, %rbp
	.cfi_def_cfa_register %rbp
	subq	$112, %rsp
	movq	16(%rbp), %rax
	movq	%rdi, -8(%rbp)
	movq	%rsi, -16(%rbp)
	movl	%edx, -20(%rbp)
	movq	%rcx, -32(%rbp)
	movl	%r8d, -36(%rbp)
	movq	%r9, -48(%rbp)
	movq	-8(%rbp), %rax
	movq	-16(%rbp), %rcx
	movq	%rcx, -96(%rbp)                 # 8-byte Spill
	movl	-20(%rbp), %ecx
	movl	%ecx, -84(%rbp)                 # 4-byte Spill
	movq	8(%rax), %rax
	movq	%rax, -80(%rbp)                 # 8-byte Spill
	movq	-32(%rbp), %rax
	movq	%rax, -72(%rbp)                 # 8-byte Spill
	movl	-36(%rbp), %eax
	movl	%eax, -60(%rbp)                 # 4-byte Spill
	movq	-48(%rbp), %rax
	movq	%rax, -56(%rbp)                 # 8-byte Spill
	movq	16(%rbp), %rdi
	callq	_ZNK3MPI9Comm_NullcvP19ompi_communicator_tEv
	movq	-96(%rbp), %rdi                 # 8-byte Reload
	movl	-84(%rbp), %esi                 # 4-byte Reload
	movq	-80(%rbp), %rdx                 # 8-byte Reload
	movq	-72(%rbp), %rcx                 # 8-byte Reload
	movl	-60(%rbp), %r8d                 # 4-byte Reload
	movq	-56(%rbp), %r9                  # 8-byte Reload
	movq	%rax, (%rsp)
	callq	MPI_Pack@PLT
	addq	$112, %rsp
	popq	%rbp
	.cfi_def_cfa %rsp, 8
	retq
.Lfunc_end45:
	.size	_ZNK3MPI8Datatype4PackEPKviPviRiRKNS_4CommE, .Lfunc_end45-_ZNK3MPI8Datatype4PackEPKviPviRiRKNS_4CommE
	.cfi_endproc
                                        # -- End function
	.section	.text._ZNK3MPI8Datatype6UnpackEPKviPviRiRKNS_4CommE,"axG",@progbits,_ZNK3MPI8Datatype6UnpackEPKviPviRiRKNS_4CommE,comdat
	.weak	_ZNK3MPI8Datatype6UnpackEPKviPviRiRKNS_4CommE # -- Begin function _ZNK3MPI8Datatype6UnpackEPKviPviRiRKNS_4CommE
	.p2align	4, 0x90
	.type	_ZNK3MPI8Datatype6UnpackEPKviPviRiRKNS_4CommE,@function
_ZNK3MPI8Datatype6UnpackEPKviPviRiRKNS_4CommE: # @_ZNK3MPI8Datatype6UnpackEPKviPviRiRKNS_4CommE
	.cfi_startproc
# %bb.0:
	pushq	%rbp
	.cfi_def_cfa_offset 16
	.cfi_offset %rbp, -16
	movq	%rsp, %rbp
	.cfi_def_cfa_register %rbp
	subq	$112, %rsp
	movq	16(%rbp), %rax
	movq	%rdi, -8(%rbp)
	movq	%rsi, -16(%rbp)
	movl	%edx, -20(%rbp)
	movq	%rcx, -32(%rbp)
	movl	%r8d, -36(%rbp)
	movq	%r9, -48(%rbp)
	movq	-8(%rbp), %rax
	movq	-16(%rbp), %rcx
	movq	%rcx, -96(%rbp)                 # 8-byte Spill
	movl	-20(%rbp), %ecx
	movl	%ecx, -84(%rbp)                 # 4-byte Spill
	movq	-48(%rbp), %rcx
	movq	%rcx, -80(%rbp)                 # 8-byte Spill
	movq	-32(%rbp), %rcx
	movq	%rcx, -72(%rbp)                 # 8-byte Spill
	movl	-36(%rbp), %ecx
	movl	%ecx, -60(%rbp)                 # 4-byte Spill
	movq	8(%rax), %rax
	movq	%rax, -56(%rbp)                 # 8-byte Spill
	movq	16(%rbp), %rdi
	callq	_ZNK3MPI9Comm_NullcvP19ompi_communicator_tEv
	movq	-96(%rbp), %rdi                 # 8-byte Reload
	movl	-84(%rbp), %esi                 # 4-byte Reload
	movq	-80(%rbp), %rdx                 # 8-byte Reload
	movq	-72(%rbp), %rcx                 # 8-byte Reload
	movl	-60(%rbp), %r8d                 # 4-byte Reload
	movq	-56(%rbp), %r9                  # 8-byte Reload
	movq	%rax, (%rsp)
	callq	MPI_Unpack@PLT
	addq	$112, %rsp
	popq	%rbp
	.cfi_def_cfa %rsp, 8
	retq
.Lfunc_end46:
	.size	_ZNK3MPI8Datatype6UnpackEPKviPviRiRKNS_4CommE, .Lfunc_end46-_ZNK3MPI8Datatype6UnpackEPKviPviRiRKNS_4CommE
	.cfi_endproc
                                        # -- End function
	.section	.text._ZNK3MPI8Datatype9Pack_sizeEiRKNS_4CommE,"axG",@progbits,_ZNK3MPI8Datatype9Pack_sizeEiRKNS_4CommE,comdat
	.weak	_ZNK3MPI8Datatype9Pack_sizeEiRKNS_4CommE # -- Begin function _ZNK3MPI8Datatype9Pack_sizeEiRKNS_4CommE
	.p2align	4, 0x90
	.type	_ZNK3MPI8Datatype9Pack_sizeEiRKNS_4CommE,@function
_ZNK3MPI8Datatype9Pack_sizeEiRKNS_4CommE: # @_ZNK3MPI8Datatype9Pack_sizeEiRKNS_4CommE
	.cfi_startproc
# %bb.0:
	pushq	%rbp
	.cfi_def_cfa_offset 16
	.cfi_offset %rbp, -16
	movq	%rsp, %rbp
	.cfi_def_cfa_register %rbp
	subq	$48, %rsp
	movq	%rdi, -8(%rbp)
	movl	%esi, -12(%rbp)
	movq	%rdx, -24(%rbp)
	movq	-8(%rbp), %rax
	movl	-12(%rbp), %ecx
	movl	%ecx, -44(%rbp)                 # 4-byte Spill
	movq	8(%rax), %rax
	movq	%rax, -40(%rbp)                 # 8-byte Spill
	movq	-24(%rbp), %rdi
	callq	_ZNK3MPI9Comm_NullcvP19ompi_communicator_tEv
	movl	-44(%rbp), %edi                 # 4-byte Reload
	movq	-40(%rbp), %rsi                 # 8-byte Reload
	movq	%rax, %rdx
	leaq	-28(%rbp), %rcx
	callq	MPI_Pack_size@PLT
	movl	-28(%rbp), %eax
	addq	$48, %rsp
	popq	%rbp
	.cfi_def_cfa %rsp, 8
	retq
.Lfunc_end47:
	.size	_ZNK3MPI8Datatype9Pack_sizeEiRKNS_4CommE, .Lfunc_end47-_ZNK3MPI8Datatype9Pack_sizeEiRKNS_4CommE
	.cfi_endproc
                                        # -- End function
	.section	.text._ZNK3MPI8Datatype13Pack_externalEPKcPKviPvlRl,"axG",@progbits,_ZNK3MPI8Datatype13Pack_externalEPKcPKviPvlRl,comdat
	.weak	_ZNK3MPI8Datatype13Pack_externalEPKcPKviPvlRl # -- Begin function _ZNK3MPI8Datatype13Pack_externalEPKcPKviPvlRl
	.p2align	4, 0x90
	.type	_ZNK3MPI8Datatype13Pack_externalEPKcPKviPvlRl,@function
_ZNK3MPI8Datatype13Pack_externalEPKcPKviPvlRl: # @_ZNK3MPI8Datatype13Pack_externalEPKcPKviPvlRl
	.cfi_startproc
# %bb.0:
	pushq	%rbp
	.cfi_def_cfa_offset 16
	.cfi_offset %rbp, -16
	movq	%rsp, %rbp
	.cfi_def_cfa_register %rbp
	subq	$64, %rsp
	movq	16(%rbp), %rax
	movq	%rdi, -8(%rbp)
	movq	%rsi, -16(%rbp)
	movq	%rdx, -24(%rbp)
	movl	%ecx, -28(%rbp)
	movq	%r8, -40(%rbp)
	movq	%r9, -48(%rbp)
	movq	-8(%rbp), %rax
	movq	-16(%rbp), %rdi
	movq	-24(%rbp), %rsi
	movl	-28(%rbp), %edx
	movq	8(%rax), %rcx
	movq	-40(%rbp), %r8
	movq	-48(%rbp), %r9
	movq	16(%rbp), %rax
	movq	%rax, (%rsp)
	callq	MPI_Pack_external@PLT
	addq	$64, %rsp
	popq	%rbp
	.cfi_def_cfa %rsp, 8
	retq
.Lfunc_end48:
	.size	_ZNK3MPI8Datatype13Pack_externalEPKcPKviPvlRl, .Lfunc_end48-_ZNK3MPI8Datatype13Pack_externalEPKcPKviPvlRl
	.cfi_endproc
                                        # -- End function
	.section	.text._ZNK3MPI8Datatype18Pack_external_sizeEPKci,"axG",@progbits,_ZNK3MPI8Datatype18Pack_external_sizeEPKci,comdat
	.weak	_ZNK3MPI8Datatype18Pack_external_sizeEPKci # -- Begin function _ZNK3MPI8Datatype18Pack_external_sizeEPKci
	.p2align	4, 0x90
	.type	_ZNK3MPI8Datatype18Pack_external_sizeEPKci,@function
_ZNK3MPI8Datatype18Pack_external_sizeEPKci: # @_ZNK3MPI8Datatype18Pack_external_sizeEPKci
	.cfi_startproc
# %bb.0:
	pushq	%rbp
	.cfi_def_cfa_offset 16
	.cfi_offset %rbp, -16
	movq	%rsp, %rbp
	.cfi_def_cfa_register %rbp
	subq	$32, %rsp
	movq	%rdi, -8(%rbp)
	movq	%rsi, -16(%rbp)
	movl	%edx, -20(%rbp)
	movq	-8(%rbp), %rax
	movq	-16(%rbp), %rdi
	movl	-20(%rbp), %esi
	movq	8(%rax), %rdx
	leaq	-32(%rbp), %rcx
	callq	MPI_Pack_external_size@PLT
	movq	-32(%rbp), %rax
	addq	$32, %rsp
	popq	%rbp
	.cfi_def_cfa %rsp, 8
	retq
.Lfunc_end49:
	.size	_ZNK3MPI8Datatype18Pack_external_sizeEPKci, .Lfunc_end49-_ZNK3MPI8Datatype18Pack_external_sizeEPKci
	.cfi_endproc
                                        # -- End function
	.section	.text._ZNK3MPI8Datatype15Unpack_externalEPKcPKvlRlPvi,"axG",@progbits,_ZNK3MPI8Datatype15Unpack_externalEPKcPKvlRlPvi,comdat
	.weak	_ZNK3MPI8Datatype15Unpack_externalEPKcPKvlRlPvi # -- Begin function _ZNK3MPI8Datatype15Unpack_externalEPKcPKvlRlPvi
	.p2align	4, 0x90
	.type	_ZNK3MPI8Datatype15Unpack_externalEPKcPKvlRlPvi,@function
_ZNK3MPI8Datatype15Unpack_externalEPKcPKvlRlPvi: # @_ZNK3MPI8Datatype15Unpack_externalEPKcPKvlRlPvi
	.cfi_startproc
# %bb.0:
	pushq	%rbp
	.cfi_def_cfa_offset 16
	.cfi_offset %rbp, -16
	movq	%rsp, %rbp
	.cfi_def_cfa_register %rbp
	subq	$64, %rsp
	movl	16(%rbp), %eax
	movq	%rdi, -8(%rbp)
	movq	%rsi, -16(%rbp)
	movq	%rdx, -24(%rbp)
	movq	%rcx, -32(%rbp)
	movq	%r8, -40(%rbp)
	movq	%r9, -48(%rbp)
	movq	-8(%rbp), %rax
	movq	-16(%rbp), %rdi
	movq	-24(%rbp), %rsi
	movq	-32(%rbp), %rdx
	movq	-40(%rbp), %rcx
	movq	-48(%rbp), %r8
	movl	16(%rbp), %r9d
	movq	8(%rax), %rax
	movq	%rax, (%rsp)
	callq	MPI_Unpack_external@PLT
	addq	$64, %rsp
	popq	%rbp
	.cfi_def_cfa %rsp, 8
	retq
.Lfunc_end50:
	.size	_ZNK3MPI8Datatype15Unpack_externalEPKcPKvlRlPvi, .Lfunc_end50-_ZNK3MPI8Datatype15Unpack_externalEPKcPKvlRlPvi
	.cfi_endproc
                                        # -- End function
	.section	.text._ZNK3MPI8Datatype15Create_subarrayEiPKiS2_S2_i,"axG",@progbits,_ZNK3MPI8Datatype15Create_subarrayEiPKiS2_S2_i,comdat
	.weak	_ZNK3MPI8Datatype15Create_subarrayEiPKiS2_S2_i # -- Begin function _ZNK3MPI8Datatype15Create_subarrayEiPKiS2_S2_i
	.p2align	4, 0x90
	.type	_ZNK3MPI8Datatype15Create_subarrayEiPKiS2_S2_i,@function
_ZNK3MPI8Datatype15Create_subarrayEiPKiS2_S2_i: # @_ZNK3MPI8Datatype15Create_subarrayEiPKiS2_S2_i
	.cfi_startproc
# %bb.0:
	pushq	%rbp
	.cfi_def_cfa_offset 16
	.cfi_offset %rbp, -16
	movq	%rsp, %rbp
	.cfi_def_cfa_register %rbp
	subq	$80, %rsp
	movq	%rdi, -72(%rbp)                 # 8-byte Spill
	movq	%rdi, %rax
	movq	%rax, -64(%rbp)                 # 8-byte Spill
	movl	16(%rbp), %eax
	movq	%rdi, -8(%rbp)
	movq	%rsi, -16(%rbp)
	movl	%edx, -20(%rbp)
	movq	%rcx, -32(%rbp)
	movq	%r8, -40(%rbp)
	movq	%r9, -48(%rbp)
	movq	-16(%rbp), %rax
	movl	-20(%rbp), %edi
	movq	-32(%rbp), %rsi
	movq	-40(%rbp), %rdx
	movq	-48(%rbp), %rcx
	movl	16(%rbp), %r8d
	movq	8(%rax), %r9
	leaq	-56(%rbp), %rax
	movq	%rax, (%rsp)
	callq	MPI_Type_create_subarray@PLT
	movq	-72(%rbp), %rdi                 # 8-byte Reload
	movq	-56(%rbp), %rsi
	callq	_ZN3MPI8DatatypeC2EP15ompi_datatype_t
	movq	-64(%rbp), %rax                 # 8-byte Reload
	addq	$80, %rsp
	popq	%rbp
	.cfi_def_cfa %rsp, 8
	retq
.Lfunc_end51:
	.size	_ZNK3MPI8Datatype15Create_subarrayEiPKiS2_S2_i, .Lfunc_end51-_ZNK3MPI8Datatype15Create_subarrayEiPKiS2_S2_i
	.cfi_endproc
                                        # -- End function
	.section	.text._ZNK3MPI8Datatype13Create_darrayEiiiPKiS2_S2_S2_i,"axG",@progbits,_ZNK3MPI8Datatype13Create_darrayEiiiPKiS2_S2_S2_i,comdat
	.weak	_ZNK3MPI8Datatype13Create_darrayEiiiPKiS2_S2_S2_i # -- Begin function _ZNK3MPI8Datatype13Create_darrayEiiiPKiS2_S2_S2_i
	.p2align	4, 0x90
	.type	_ZNK3MPI8Datatype13Create_darrayEiiiPKiS2_S2_S2_i,@function
_ZNK3MPI8Datatype13Create_darrayEiiiPKiS2_S2_S2_i: # @_ZNK3MPI8Datatype13Create_darrayEiiiPKiS2_S2_S2_i
	.cfi_startproc
# %bb.0:
	pushq	%rbp
	.cfi_def_cfa_offset 16
	.cfi_offset %rbp, -16
	movq	%rsp, %rbp
	.cfi_def_cfa_register %rbp
	pushq	%rbx
	subq	$104, %rsp
	.cfi_offset %rbx, -24
	movq	%rdi, -72(%rbp)                 # 8-byte Spill
	movq	%rdi, %rax
	movq	%rax, -64(%rbp)                 # 8-byte Spill
	movl	40(%rbp), %eax
	movq	32(%rbp), %rax
	movq	24(%rbp), %rax
	movq	16(%rbp), %rax
	movq	%rdi, -16(%rbp)
	movq	%rsi, -24(%rbp)
	movl	%edx, -28(%rbp)
	movl	%ecx, -32(%rbp)
	movl	%r8d, -36(%rbp)
	movq	%r9, -48(%rbp)
	movq	-24(%rbp), %rax
	movl	-28(%rbp), %edi
	movl	-32(%rbp), %esi
	movl	-36(%rbp), %edx
	movq	-48(%rbp), %rcx
	movq	16(%rbp), %r8
	movq	24(%rbp), %r9
	movq	32(%rbp), %rbx
	movl	40(%rbp), %r11d
	movq	8(%rax), %r10
	leaq	-56(%rbp), %rax
	movq	%rbx, (%rsp)
	movl	%r11d, 8(%rsp)
	movq	%r10, 16(%rsp)
	movq	%rax, 24(%rsp)
	callq	MPI_Type_create_darray@PLT
	movq	-72(%rbp), %rdi                 # 8-byte Reload
	movq	-56(%rbp), %rsi
	callq	_ZN3MPI8DatatypeC2EP15ompi_datatype_t
	movq	-64(%rbp), %rax                 # 8-byte Reload
	addq	$104, %rsp
	popq	%rbx
	popq	%rbp
	.cfi_def_cfa %rsp, 8
	retq
.Lfunc_end52:
	.size	_ZNK3MPI8Datatype13Create_darrayEiiiPKiS2_S2_S2_i, .Lfunc_end52-_ZNK3MPI8Datatype13Create_darrayEiiiPKiS2_S2_S2_i
	.cfi_endproc
                                        # -- End function
	.section	.text._ZNK3MPI8Datatype3DupEv,"axG",@progbits,_ZNK3MPI8Datatype3DupEv,comdat
	.weak	_ZNK3MPI8Datatype3DupEv         # -- Begin function _ZNK3MPI8Datatype3DupEv
	.p2align	4, 0x90
	.type	_ZNK3MPI8Datatype3DupEv,@function
_ZNK3MPI8Datatype3DupEv:                # @_ZNK3MPI8Datatype3DupEv
	.cfi_startproc
# %bb.0:
	pushq	%rbp
	.cfi_def_cfa_offset 16
	.cfi_offset %rbp, -16
	movq	%rsp, %rbp
	.cfi_def_cfa_register %rbp
	subq	$48, %rsp
	movq	%rdi, -40(%rbp)                 # 8-byte Spill
	movq	%rdi, %rax
	movq	%rax, -32(%rbp)                 # 8-byte Spill
	movq	%rdi, -8(%rbp)
	movq	%rsi, -16(%rbp)
	movq	-16(%rbp), %rax
	movq	8(%rax), %rdi
	leaq	-24(%rbp), %rsi
	callq	MPI_Type_dup@PLT
	movq	-40(%rbp), %rdi                 # 8-byte Reload
	movq	-24(%rbp), %rsi
	callq	_ZN3MPI8DatatypeC2EP15ompi_datatype_t
	movq	-32(%rbp), %rax                 # 8-byte Reload
	addq	$48, %rsp
	popq	%rbp
	.cfi_def_cfa %rsp, 8
	retq
.Lfunc_end53:
	.size	_ZNK3MPI8Datatype3DupEv, .Lfunc_end53-_ZNK3MPI8Datatype3DupEv
	.cfi_endproc
                                        # -- End function
	.section	.text._ZN3MPI8Datatype11Delete_attrEi,"axG",@progbits,_ZN3MPI8Datatype11Delete_attrEi,comdat
	.weak	_ZN3MPI8Datatype11Delete_attrEi # -- Begin function _ZN3MPI8Datatype11Delete_attrEi
	.p2align	4, 0x90
	.type	_ZN3MPI8Datatype11Delete_attrEi,@function
_ZN3MPI8Datatype11Delete_attrEi:        # @_ZN3MPI8Datatype11Delete_attrEi
	.cfi_startproc
# %bb.0:
	pushq	%rbp
	.cfi_def_cfa_offset 16
	.cfi_offset %rbp, -16
	movq	%rsp, %rbp
	.cfi_def_cfa_register %rbp
	subq	$16, %rsp
	movq	%rdi, -8(%rbp)
	movl	%esi, -12(%rbp)
	movq	-8(%rbp), %rax
	movq	8(%rax), %rdi
	movl	-12(%rbp), %esi
	callq	MPI_Type_delete_attr@PLT
	addq	$16, %rsp
	popq	%rbp
	.cfi_def_cfa %rsp, 8
	retq
.Lfunc_end54:
	.size	_ZN3MPI8Datatype11Delete_attrEi, .Lfunc_end54-_ZN3MPI8Datatype11Delete_attrEi
	.cfi_endproc
                                        # -- End function
	.section	.text._ZNK3MPI8Datatype8Get_attrEiPv,"axG",@progbits,_ZNK3MPI8Datatype8Get_attrEiPv,comdat
	.weak	_ZNK3MPI8Datatype8Get_attrEiPv  # -- Begin function _ZNK3MPI8Datatype8Get_attrEiPv
	.p2align	4, 0x90
	.type	_ZNK3MPI8Datatype8Get_attrEiPv,@function
_ZNK3MPI8Datatype8Get_attrEiPv:         # @_ZNK3MPI8Datatype8Get_attrEiPv
	.cfi_startproc
# %bb.0:
	pushq	%rbp
	.cfi_def_cfa_offset 16
	.cfi_offset %rbp, -16
	movq	%rsp, %rbp
	.cfi_def_cfa_register %rbp
	subq	$32, %rsp
	movq	%rdi, -8(%rbp)
	movl	%esi, -12(%rbp)
	movq	%rdx, -24(%rbp)
	movq	-8(%rbp), %rax
	movq	8(%rax), %rdi
	movl	-12(%rbp), %esi
	movq	-24(%rbp), %rdx
	leaq	-28(%rbp), %rcx
	callq	MPI_Type_get_attr@PLT
	cmpl	$0, -28(%rbp)
	setne	%al
	andb	$1, %al
	movzbl	%al, %eax
	addq	$32, %rsp
	popq	%rbp
	.cfi_def_cfa %rsp, 8
	retq
.Lfunc_end55:
	.size	_ZNK3MPI8Datatype8Get_attrEiPv, .Lfunc_end55-_ZNK3MPI8Datatype8Get_attrEiPv
	.cfi_endproc
                                        # -- End function
	.section	.text._ZNK3MPI8Datatype12Get_contentsEiiiPiPlPS0_,"axG",@progbits,_ZNK3MPI8Datatype12Get_contentsEiiiPiPlPS0_,comdat
	.weak	_ZNK3MPI8Datatype12Get_contentsEiiiPiPlPS0_ # -- Begin function _ZNK3MPI8Datatype12Get_contentsEiiiPiPlPS0_
	.p2align	4, 0x90
	.type	_ZNK3MPI8Datatype12Get_contentsEiiiPiPlPS0_,@function
_ZNK3MPI8Datatype12Get_contentsEiiiPiPlPS0_: # @_ZNK3MPI8Datatype12Get_contentsEiiiPiPlPS0_
	.cfi_startproc
# %bb.0:
	pushq	%rbp
	.cfi_def_cfa_offset 16
	.cfi_offset %rbp, -16
	movq	%rsp, %rbp
	.cfi_def_cfa_register %rbp
	subq	$80, %rsp
	movq	16(%rbp), %rax
	movq	%rdi, -8(%rbp)
	movl	%esi, -12(%rbp)
	movl	%edx, -16(%rbp)
	movl	%ecx, -20(%rbp)
	movq	%r8, -32(%rbp)
	movq	%r9, -40(%rbp)
	movq	-8(%rbp), %rax
	movq	%rax, -64(%rbp)                 # 8-byte Spill
	movslq	-20(%rbp), %rax
	movl	$8, %ecx
	mulq	%rcx
	movq	%rax, %rdi
	seto	%al
	movq	$-1, %rax
	cmovoq	%rax, %rdi
	callq	_Znam@PLT
	movq	%rax, %rcx
	movq	-64(%rbp), %rax                 # 8-byte Reload
	movq	%rcx, -56(%rbp)
	movq	8(%rax), %rdi
	movl	-12(%rbp), %esi
	movl	-16(%rbp), %edx
	movl	-20(%rbp), %ecx
	movq	-32(%rbp), %r8
	movq	-40(%rbp), %r9
	movq	-56(%rbp), %rax
	movq	%rax, (%rsp)
	callq	MPI_Type_get_contents@PLT
	movl	$0, -44(%rbp)
.LBB56_1:                               # =>This Inner Loop Header: Depth=1
	movl	-44(%rbp), %eax
	cmpl	-20(%rbp), %eax
	jge	.LBB56_4
# %bb.2:                                #   in Loop: Header=BB56_1 Depth=1
	movq	-56(%rbp), %rsi
	movslq	-44(%rbp), %rax
	shlq	$3, %rax
	addq	%rax, %rsi
	movq	16(%rbp), %rdi
	movslq	-44(%rbp), %rax
	shlq	$4, %rax
	addq	%rax, %rdi
	callq	_ZN3MPI8DatatypeaSERKP15ompi_datatype_t
# %bb.3:                                #   in Loop: Header=BB56_1 Depth=1
	movl	-44(%rbp), %eax
	addl	$1, %eax
	movl	%eax, -44(%rbp)
	jmp	.LBB56_1
.LBB56_4:
	movq	-56(%rbp), %rax
	movq	%rax, -72(%rbp)                 # 8-byte Spill
	cmpq	$0, %rax
	je	.LBB56_6
# %bb.5:
	movq	-72(%rbp), %rdi                 # 8-byte Reload
	callq	_ZdaPv@PLT
.LBB56_6:
	addq	$80, %rsp
	popq	%rbp
	.cfi_def_cfa %rsp, 8
	retq
.Lfunc_end56:
	.size	_ZNK3MPI8Datatype12Get_contentsEiiiPiPlPS0_, .Lfunc_end56-_ZNK3MPI8Datatype12Get_contentsEiiiPiPlPS0_
	.cfi_endproc
                                        # -- End function
	.section	.text._ZNK3MPI8Datatype12Get_envelopeERiS1_S1_S1_,"axG",@progbits,_ZNK3MPI8Datatype12Get_envelopeERiS1_S1_S1_,comdat
	.weak	_ZNK3MPI8Datatype12Get_envelopeERiS1_S1_S1_ # -- Begin function _ZNK3MPI8Datatype12Get_envelopeERiS1_S1_S1_
	.p2align	4, 0x90
	.type	_ZNK3MPI8Datatype12Get_envelopeERiS1_S1_S1_,@function
_ZNK3MPI8Datatype12Get_envelopeERiS1_S1_S1_: # @_ZNK3MPI8Datatype12Get_envelopeERiS1_S1_S1_
	.cfi_startproc
# %bb.0:
	pushq	%rbp
	.cfi_def_cfa_offset 16
	.cfi_offset %rbp, -16
	movq	%rsp, %rbp
	.cfi_def_cfa_register %rbp
	subq	$48, %rsp
	movq	%rdi, -8(%rbp)
	movq	%rsi, -16(%rbp)
	movq	%rdx, -24(%rbp)
	movq	%rcx, -32(%rbp)
	movq	%r8, -40(%rbp)
	movq	-8(%rbp), %rax
	movq	8(%rax), %rdi
	movq	-16(%rbp), %rsi
	movq	-24(%rbp), %rdx
	movq	-32(%rbp), %rcx
	movq	-40(%rbp), %r8
	callq	MPI_Type_get_envelope@PLT
	addq	$48, %rsp
	popq	%rbp
	.cfi_def_cfa %rsp, 8
	retq
.Lfunc_end57:
	.size	_ZNK3MPI8Datatype12Get_envelopeERiS1_S1_S1_, .Lfunc_end57-_ZNK3MPI8Datatype12Get_envelopeERiS1_S1_S1_
	.cfi_endproc
                                        # -- End function
	.section	.text._ZNK3MPI8Datatype8Get_nameEPcRi,"axG",@progbits,_ZNK3MPI8Datatype8Get_nameEPcRi,comdat
	.weak	_ZNK3MPI8Datatype8Get_nameEPcRi # -- Begin function _ZNK3MPI8Datatype8Get_nameEPcRi
	.p2align	4, 0x90
	.type	_ZNK3MPI8Datatype8Get_nameEPcRi,@function
_ZNK3MPI8Datatype8Get_nameEPcRi:        # @_ZNK3MPI8Datatype8Get_nameEPcRi
	.cfi_startproc
# %bb.0:
	pushq	%rbp
	.cfi_def_cfa_offset 16
	.cfi_offset %rbp, -16
	movq	%rsp, %rbp
	.cfi_def_cfa_register %rbp
	subq	$32, %rsp
	movq	%rdi, -8(%rbp)
	movq	%rsi, -16(%rbp)
	movq	%rdx, -24(%rbp)
	movq	-8(%rbp), %rax
	movq	8(%rax), %rdi
	movq	-16(%rbp), %rsi
	movq	-24(%rbp), %rdx
	callq	MPI_Type_get_name@PLT
	addq	$32, %rsp
	popq	%rbp
	.cfi_def_cfa %rsp, 8
	retq
.Lfunc_end58:
	.size	_ZNK3MPI8Datatype8Get_nameEPcRi, .Lfunc_end58-_ZNK3MPI8Datatype8Get_nameEPcRi
	.cfi_endproc
                                        # -- End function
	.section	.text._ZN3MPI8Datatype8Set_attrEiPKv,"axG",@progbits,_ZN3MPI8Datatype8Set_attrEiPKv,comdat
	.weak	_ZN3MPI8Datatype8Set_attrEiPKv  # -- Begin function _ZN3MPI8Datatype8Set_attrEiPKv
	.p2align	4, 0x90
	.type	_ZN3MPI8Datatype8Set_attrEiPKv,@function
_ZN3MPI8Datatype8Set_attrEiPKv:         # @_ZN3MPI8Datatype8Set_attrEiPKv
	.cfi_startproc
# %bb.0:
	pushq	%rbp
	.cfi_def_cfa_offset 16
	.cfi_offset %rbp, -16
	movq	%rsp, %rbp
	.cfi_def_cfa_register %rbp
	subq	$32, %rsp
	movq	%rdi, -8(%rbp)
	movl	%esi, -12(%rbp)
	movq	%rdx, -24(%rbp)
	movq	-8(%rbp), %rax
	movq	8(%rax), %rdi
	movl	-12(%rbp), %esi
	movq	-24(%rbp), %rdx
	callq	MPI_Type_set_attr@PLT
	addq	$32, %rsp
	popq	%rbp
	.cfi_def_cfa %rsp, 8
	retq
.Lfunc_end59:
	.size	_ZN3MPI8Datatype8Set_attrEiPKv, .Lfunc_end59-_ZN3MPI8Datatype8Set_attrEiPKv
	.cfi_endproc
                                        # -- End function
	.section	.text._ZN3MPI8Datatype8Set_nameEPKc,"axG",@progbits,_ZN3MPI8Datatype8Set_nameEPKc,comdat
	.weak	_ZN3MPI8Datatype8Set_nameEPKc   # -- Begin function _ZN3MPI8Datatype8Set_nameEPKc
	.p2align	4, 0x90
	.type	_ZN3MPI8Datatype8Set_nameEPKc,@function
_ZN3MPI8Datatype8Set_nameEPKc:          # @_ZN3MPI8Datatype8Set_nameEPKc
	.cfi_startproc
# %bb.0:
	pushq	%rbp
	.cfi_def_cfa_offset 16
	.cfi_offset %rbp, -16
	movq	%rsp, %rbp
	.cfi_def_cfa_register %rbp
	subq	$16, %rsp
	movq	%rdi, -8(%rbp)
	movq	%rsi, -16(%rbp)
	movq	-8(%rbp), %rax
	movq	8(%rax), %rdi
	movq	-16(%rbp), %rsi
	callq	MPI_Type_set_name@PLT
	addq	$16, %rsp
	popq	%rbp
	.cfi_def_cfa %rsp, 8
	retq
.Lfunc_end60:
	.size	_ZN3MPI8Datatype8Set_nameEPKc, .Lfunc_end60-_ZN3MPI8Datatype8Set_nameEPKc
	.cfi_endproc
                                        # -- End function
	.section	.text._ZN3MPI6StatusD2Ev,"axG",@progbits,_ZN3MPI6StatusD2Ev,comdat
	.weak	_ZN3MPI6StatusD2Ev              # -- Begin function _ZN3MPI6StatusD2Ev
	.p2align	4, 0x90
	.type	_ZN3MPI6StatusD2Ev,@function
_ZN3MPI6StatusD2Ev:                     # @_ZN3MPI6StatusD2Ev
	.cfi_startproc
# %bb.0:
	pushq	%rbp
	.cfi_def_cfa_offset 16
	.cfi_offset %rbp, -16
	movq	%rsp, %rbp
	.cfi_def_cfa_register %rbp
	movq	%rdi, -8(%rbp)
	popq	%rbp
	.cfi_def_cfa %rsp, 8
	retq
.Lfunc_end61:
	.size	_ZN3MPI6StatusD2Ev, .Lfunc_end61-_ZN3MPI6StatusD2Ev
	.cfi_endproc
                                        # -- End function
	.section	.text._ZN3MPI6StatusD0Ev,"axG",@progbits,_ZN3MPI6StatusD0Ev,comdat
	.weak	_ZN3MPI6StatusD0Ev              # -- Begin function _ZN3MPI6StatusD0Ev
	.p2align	4, 0x90
	.type	_ZN3MPI6StatusD0Ev,@function
_ZN3MPI6StatusD0Ev:                     # @_ZN3MPI6StatusD0Ev
	.cfi_startproc
# %bb.0:
	pushq	%rbp
	.cfi_def_cfa_offset 16
	.cfi_offset %rbp, -16
	movq	%rsp, %rbp
	.cfi_def_cfa_register %rbp
	subq	$16, %rsp
	movq	%rdi, -8(%rbp)
	movq	-8(%rbp), %rdi
	movq	%rdi, -16(%rbp)                 # 8-byte Spill
	callq	_ZN3MPI6StatusD2Ev
	movq	-16(%rbp), %rdi                 # 8-byte Reload
	callq	_ZdlPv@PLT
	addq	$16, %rsp
	popq	%rbp
	.cfi_def_cfa %rsp, 8
	retq
.Lfunc_end62:
	.size	_ZN3MPI6StatusD0Ev, .Lfunc_end62-_ZN3MPI6StatusD0Ev
	.cfi_endproc
                                        # -- End function
	.section	.text._ZNK3MPI6Status12Is_cancelledEv,"axG",@progbits,_ZNK3MPI6Status12Is_cancelledEv,comdat
	.weak	_ZNK3MPI6Status12Is_cancelledEv # -- Begin function _ZNK3MPI6Status12Is_cancelledEv
	.p2align	4, 0x90
	.type	_ZNK3MPI6Status12Is_cancelledEv,@function
_ZNK3MPI6Status12Is_cancelledEv:        # @_ZNK3MPI6Status12Is_cancelledEv
	.cfi_startproc
# %bb.0:
	pushq	%rbp
	.cfi_def_cfa_offset 16
	.cfi_offset %rbp, -16
	movq	%rsp, %rbp
	.cfi_def_cfa_register %rbp
	subq	$16, %rsp
	movq	%rdi, -8(%rbp)
	movq	-8(%rbp), %rdi
	addq	$8, %rdi
	leaq	-12(%rbp), %rsi
	callq	MPI_Test_cancelled@PLT
	cmpl	$0, -12(%rbp)
	setne	%al
	andb	$1, %al
	movzbl	%al, %eax
	addq	$16, %rsp
	popq	%rbp
	.cfi_def_cfa %rsp, 8
	retq
.Lfunc_end63:
	.size	_ZNK3MPI6Status12Is_cancelledEv, .Lfunc_end63-_ZNK3MPI6Status12Is_cancelledEv
	.cfi_endproc
                                        # -- End function
	.section	.text._ZNK3MPI6Status12Get_elementsERKNS_8DatatypeE,"axG",@progbits,_ZNK3MPI6Status12Get_elementsERKNS_8DatatypeE,comdat
	.weak	_ZNK3MPI6Status12Get_elementsERKNS_8DatatypeE # -- Begin function _ZNK3MPI6Status12Get_elementsERKNS_8DatatypeE
	.p2align	4, 0x90
	.type	_ZNK3MPI6Status12Get_elementsERKNS_8DatatypeE,@function
_ZNK3MPI6Status12Get_elementsERKNS_8DatatypeE: # @_ZNK3MPI6Status12Get_elementsERKNS_8DatatypeE
	.cfi_startproc
# %bb.0:
	pushq	%rbp
	.cfi_def_cfa_offset 16
	.cfi_offset %rbp, -16
	movq	%rsp, %rbp
	.cfi_def_cfa_register %rbp
	subq	$32, %rsp
	movq	%rdi, -8(%rbp)
	movq	%rsi, -16(%rbp)
	movq	-8(%rbp), %rax
	addq	$8, %rax
	movq	%rax, -32(%rbp)                 # 8-byte Spill
	movq	-16(%rbp), %rdi
	callq	_ZNK3MPI8DatatypecvP15ompi_datatype_tEv
	movq	-32(%rbp), %rdi                 # 8-byte Reload
	movq	%rax, %rsi
	leaq	-20(%rbp), %rdx
	callq	MPI_Get_elements@PLT
	movl	-20(%rbp), %eax
	addq	$32, %rsp
	popq	%rbp
	.cfi_def_cfa %rsp, 8
	retq
.Lfunc_end64:
	.size	_ZNK3MPI6Status12Get_elementsERKNS_8DatatypeE, .Lfunc_end64-_ZNK3MPI6Status12Get_elementsERKNS_8DatatypeE
	.cfi_endproc
                                        # -- End function
	.section	.text._ZNK3MPI6Status10Get_sourceEv,"axG",@progbits,_ZNK3MPI6Status10Get_sourceEv,comdat
	.weak	_ZNK3MPI6Status10Get_sourceEv   # -- Begin function _ZNK3MPI6Status10Get_sourceEv
	.p2align	4, 0x90
	.type	_ZNK3MPI6Status10Get_sourceEv,@function
_ZNK3MPI6Status10Get_sourceEv:          # @_ZNK3MPI6Status10Get_sourceEv
	.cfi_startproc
# %bb.0:
	pushq	%rbp
	.cfi_def_cfa_offset 16
	.cfi_offset %rbp, -16
	movq	%rsp, %rbp
	.cfi_def_cfa_register %rbp
	movq	%rdi, -8(%rbp)
	movq	-8(%rbp), %rax
	movl	8(%rax), %eax
	movl	%eax, -12(%rbp)
	movl	-12(%rbp), %eax
	popq	%rbp
	.cfi_def_cfa %rsp, 8
	retq
.Lfunc_end65:
	.size	_ZNK3MPI6Status10Get_sourceEv, .Lfunc_end65-_ZNK3MPI6Status10Get_sourceEv
	.cfi_endproc
                                        # -- End function
	.section	.text._ZN3MPI6Status10Set_sourceEi,"axG",@progbits,_ZN3MPI6Status10Set_sourceEi,comdat
	.weak	_ZN3MPI6Status10Set_sourceEi    # -- Begin function _ZN3MPI6Status10Set_sourceEi
	.p2align	4, 0x90
	.type	_ZN3MPI6Status10Set_sourceEi,@function
_ZN3MPI6Status10Set_sourceEi:           # @_ZN3MPI6Status10Set_sourceEi
	.cfi_startproc
# %bb.0:
	pushq	%rbp
	.cfi_def_cfa_offset 16
	.cfi_offset %rbp, -16
	movq	%rsp, %rbp
	.cfi_def_cfa_register %rbp
	movq	%rdi, -8(%rbp)
	movl	%esi, -12(%rbp)
	movq	-8(%rbp), %rax
	movl	-12(%rbp), %ecx
	movl	%ecx, 8(%rax)
	popq	%rbp
	.cfi_def_cfa %rsp, 8
	retq
.Lfunc_end66:
	.size	_ZN3MPI6Status10Set_sourceEi, .Lfunc_end66-_ZN3MPI6Status10Set_sourceEi
	.cfi_endproc
                                        # -- End function
	.section	.text._ZNK3MPI6Status7Get_tagEv,"axG",@progbits,_ZNK3MPI6Status7Get_tagEv,comdat
	.weak	_ZNK3MPI6Status7Get_tagEv       # -- Begin function _ZNK3MPI6Status7Get_tagEv
	.p2align	4, 0x90
	.type	_ZNK3MPI6Status7Get_tagEv,@function
_ZNK3MPI6Status7Get_tagEv:              # @_ZNK3MPI6Status7Get_tagEv
	.cfi_startproc
# %bb.0:
	pushq	%rbp
	.cfi_def_cfa_offset 16
	.cfi_offset %rbp, -16
	movq	%rsp, %rbp
	.cfi_def_cfa_register %rbp
	movq	%rdi, -8(%rbp)
	movq	-8(%rbp), %rax
	movl	12(%rax), %eax
	movl	%eax, -12(%rbp)
	movl	-12(%rbp), %eax
	popq	%rbp
	.cfi_def_cfa %rsp, 8
	retq
.Lfunc_end67:
	.size	_ZNK3MPI6Status7Get_tagEv, .Lfunc_end67-_ZNK3MPI6Status7Get_tagEv
	.cfi_endproc
                                        # -- End function
	.section	.text._ZN3MPI6Status7Set_tagEi,"axG",@progbits,_ZN3MPI6Status7Set_tagEi,comdat
	.weak	_ZN3MPI6Status7Set_tagEi        # -- Begin function _ZN3MPI6Status7Set_tagEi
	.p2align	4, 0x90
	.type	_ZN3MPI6Status7Set_tagEi,@function
_ZN3MPI6Status7Set_tagEi:               # @_ZN3MPI6Status7Set_tagEi
	.cfi_startproc
# %bb.0:
	pushq	%rbp
	.cfi_def_cfa_offset 16
	.cfi_offset %rbp, -16
	movq	%rsp, %rbp
	.cfi_def_cfa_register %rbp
	movq	%rdi, -8(%rbp)
	movl	%esi, -12(%rbp)
	movq	-8(%rbp), %rax
	movl	-12(%rbp), %ecx
	movl	%ecx, 12(%rax)
	popq	%rbp
	.cfi_def_cfa %rsp, 8
	retq
.Lfunc_end68:
	.size	_ZN3MPI6Status7Set_tagEi, .Lfunc_end68-_ZN3MPI6Status7Set_tagEi
	.cfi_endproc
                                        # -- End function
	.section	.text._ZNK3MPI6Status9Get_errorEv,"axG",@progbits,_ZNK3MPI6Status9Get_errorEv,comdat
	.weak	_ZNK3MPI6Status9Get_errorEv     # -- Begin function _ZNK3MPI6Status9Get_errorEv
	.p2align	4, 0x90
	.type	_ZNK3MPI6Status9Get_errorEv,@function
_ZNK3MPI6Status9Get_errorEv:            # @_ZNK3MPI6Status9Get_errorEv
	.cfi_startproc
# %bb.0:
	pushq	%rbp
	.cfi_def_cfa_offset 16
	.cfi_offset %rbp, -16
	movq	%rsp, %rbp
	.cfi_def_cfa_register %rbp
	movq	%rdi, -8(%rbp)
	movq	-8(%rbp), %rax
	movl	16(%rax), %eax
	movl	%eax, -12(%rbp)
	movl	-12(%rbp), %eax
	popq	%rbp
	.cfi_def_cfa %rsp, 8
	retq
.Lfunc_end69:
	.size	_ZNK3MPI6Status9Get_errorEv, .Lfunc_end69-_ZNK3MPI6Status9Get_errorEv
	.cfi_endproc
                                        # -- End function
	.section	.text._ZN3MPI6Status9Set_errorEi,"axG",@progbits,_ZN3MPI6Status9Set_errorEi,comdat
	.weak	_ZN3MPI6Status9Set_errorEi      # -- Begin function _ZN3MPI6Status9Set_errorEi
	.p2align	4, 0x90
	.type	_ZN3MPI6Status9Set_errorEi,@function
_ZN3MPI6Status9Set_errorEi:             # @_ZN3MPI6Status9Set_errorEi
	.cfi_startproc
# %bb.0:
	pushq	%rbp
	.cfi_def_cfa_offset 16
	.cfi_offset %rbp, -16
	movq	%rsp, %rbp
	.cfi_def_cfa_register %rbp
	movq	%rdi, -8(%rbp)
	movl	%esi, -12(%rbp)
	movq	-8(%rbp), %rax
	movl	-12(%rbp), %ecx
	movl	%ecx, 16(%rax)
	popq	%rbp
	.cfi_def_cfa %rsp, 8
	retq
.Lfunc_end70:
	.size	_ZN3MPI6Status9Set_errorEi, .Lfunc_end70-_ZN3MPI6Status9Set_errorEi
	.cfi_endproc
                                        # -- End function
	.section	.text._ZN3MPI6Status12Set_elementsERKNS_8DatatypeEi,"axG",@progbits,_ZN3MPI6Status12Set_elementsERKNS_8DatatypeEi,comdat
	.weak	_ZN3MPI6Status12Set_elementsERKNS_8DatatypeEi # -- Begin function _ZN3MPI6Status12Set_elementsERKNS_8DatatypeEi
	.p2align	4, 0x90
	.type	_ZN3MPI6Status12Set_elementsERKNS_8DatatypeEi,@function
_ZN3MPI6Status12Set_elementsERKNS_8DatatypeEi: # @_ZN3MPI6Status12Set_elementsERKNS_8DatatypeEi
	.cfi_startproc
# %bb.0:
	pushq	%rbp
	.cfi_def_cfa_offset 16
	.cfi_offset %rbp, -16
	movq	%rsp, %rbp
	.cfi_def_cfa_register %rbp
	subq	$32, %rsp
	movq	%rdi, -8(%rbp)
	movq	%rsi, -16(%rbp)
	movl	%edx, -20(%rbp)
	movq	-8(%rbp), %rax
	addq	$8, %rax
	movq	%rax, -32(%rbp)                 # 8-byte Spill
	movq	-16(%rbp), %rdi
	callq	_ZNK3MPI8DatatypecvP15ompi_datatype_tEv
	movq	-32(%rbp), %rdi                 # 8-byte Reload
	movq	%rax, %rsi
	movl	-20(%rbp), %edx
	callq	MPI_Status_set_elements@PLT
	addq	$32, %rsp
	popq	%rbp
	.cfi_def_cfa %rsp, 8
	retq
.Lfunc_end71:
	.size	_ZN3MPI6Status12Set_elementsERKNS_8DatatypeEi, .Lfunc_end71-_ZN3MPI6Status12Set_elementsERKNS_8DatatypeEi
	.cfi_endproc
                                        # -- End function
	.section	.text._ZN3MPI6Status13Set_cancelledEb,"axG",@progbits,_ZN3MPI6Status13Set_cancelledEb,comdat
	.weak	_ZN3MPI6Status13Set_cancelledEb # -- Begin function _ZN3MPI6Status13Set_cancelledEb
	.p2align	4, 0x90
	.type	_ZN3MPI6Status13Set_cancelledEb,@function
_ZN3MPI6Status13Set_cancelledEb:        # @_ZN3MPI6Status13Set_cancelledEb
	.cfi_startproc
# %bb.0:
	pushq	%rbp
	.cfi_def_cfa_offset 16
	.cfi_offset %rbp, -16
	movq	%rsp, %rbp
	.cfi_def_cfa_register %rbp
	subq	$16, %rsp
	movb	%sil, %al
	movq	%rdi, -8(%rbp)
	andb	$1, %al
	movb	%al, -9(%rbp)
	movq	-8(%rbp), %rdi
	addq	$8, %rdi
	movb	-9(%rbp), %al
	andb	$1, %al
	movzbl	%al, %esi
	callq	MPI_Status_set_cancelled@PLT
	addq	$16, %rsp
	popq	%rbp
	.cfi_def_cfa %rsp, 8
	retq
.Lfunc_end72:
	.size	_ZN3MPI6Status13Set_cancelledEb, .Lfunc_end72-_ZN3MPI6Status13Set_cancelledEb
	.cfi_endproc
                                        # -- End function
	.section	.text._ZN3MPI7RequestD2Ev,"axG",@progbits,_ZN3MPI7RequestD2Ev,comdat
	.weak	_ZN3MPI7RequestD2Ev             # -- Begin function _ZN3MPI7RequestD2Ev
	.p2align	4, 0x90
	.type	_ZN3MPI7RequestD2Ev,@function
_ZN3MPI7RequestD2Ev:                    # @_ZN3MPI7RequestD2Ev
	.cfi_startproc
# %bb.0:
	pushq	%rbp
	.cfi_def_cfa_offset 16
	.cfi_offset %rbp, -16
	movq	%rsp, %rbp
	.cfi_def_cfa_register %rbp
	movq	%rdi, -8(%rbp)
	popq	%rbp
	.cfi_def_cfa %rsp, 8
	retq
.Lfunc_end73:
	.size	_ZN3MPI7RequestD2Ev, .Lfunc_end73-_ZN3MPI7RequestD2Ev
	.cfi_endproc
                                        # -- End function
	.section	.text._ZN3MPI7RequestD0Ev,"axG",@progbits,_ZN3MPI7RequestD0Ev,comdat
	.weak	_ZN3MPI7RequestD0Ev             # -- Begin function _ZN3MPI7RequestD0Ev
	.p2align	4, 0x90
	.type	_ZN3MPI7RequestD0Ev,@function
_ZN3MPI7RequestD0Ev:                    # @_ZN3MPI7RequestD0Ev
	.cfi_startproc
# %bb.0:
	pushq	%rbp
	.cfi_def_cfa_offset 16
	.cfi_offset %rbp, -16
	movq	%rsp, %rbp
	.cfi_def_cfa_register %rbp
	subq	$16, %rsp
	movq	%rdi, -8(%rbp)
	movq	-8(%rbp), %rdi
	movq	%rdi, -16(%rbp)                 # 8-byte Spill
	callq	_ZN3MPI7RequestD2Ev
	movq	-16(%rbp), %rdi                 # 8-byte Reload
	callq	_ZdlPv@PLT
	addq	$16, %rsp
	popq	%rbp
	.cfi_def_cfa %rsp, 8
	retq
.Lfunc_end74:
	.size	_ZN3MPI7RequestD0Ev, .Lfunc_end74-_ZN3MPI7RequestD0Ev
	.cfi_endproc
                                        # -- End function
	.section	.text._ZN3MPI7Request4WaitEv,"axG",@progbits,_ZN3MPI7Request4WaitEv,comdat
	.weak	_ZN3MPI7Request4WaitEv          # -- Begin function _ZN3MPI7Request4WaitEv
	.p2align	4, 0x90
	.type	_ZN3MPI7Request4WaitEv,@function
_ZN3MPI7Request4WaitEv:                 # @_ZN3MPI7Request4WaitEv
	.cfi_startproc
# %bb.0:
	pushq	%rbp
	.cfi_def_cfa_offset 16
	.cfi_offset %rbp, -16
	movq	%rsp, %rbp
	.cfi_def_cfa_register %rbp
	subq	$16, %rsp
	movq	%rdi, -8(%rbp)
	movq	-8(%rbp), %rdi
	addq	$8, %rdi
	xorl	%eax, %eax
	movl	%eax, %esi
	callq	MPI_Wait@PLT
	addq	$16, %rsp
	popq	%rbp
	.cfi_def_cfa %rsp, 8
	retq
.Lfunc_end75:
	.size	_ZN3MPI7Request4WaitEv, .Lfunc_end75-_ZN3MPI7Request4WaitEv
	.cfi_endproc
                                        # -- End function
	.section	.text._ZN3MPI7Request4TestERNS_6StatusE,"axG",@progbits,_ZN3MPI7Request4TestERNS_6StatusE,comdat
	.weak	_ZN3MPI7Request4TestERNS_6StatusE # -- Begin function _ZN3MPI7Request4TestERNS_6StatusE
	.p2align	4, 0x90
	.type	_ZN3MPI7Request4TestERNS_6StatusE,@function
_ZN3MPI7Request4TestERNS_6StatusE:      # @_ZN3MPI7Request4TestERNS_6StatusE
	.cfi_startproc
# %bb.0:
	pushq	%rbp
	.cfi_def_cfa_offset 16
	.cfi_offset %rbp, -16
	movq	%rsp, %rbp
	.cfi_def_cfa_register %rbp
	subq	$32, %rsp
	movq	%rdi, -8(%rbp)
	movq	%rsi, -16(%rbp)
	movq	-8(%rbp), %rdi
	addq	$8, %rdi
	movq	-16(%rbp), %rdx
	addq	$8, %rdx
	leaq	-20(%rbp), %rsi
	callq	MPI_Test@PLT
	cmpl	$0, -20(%rbp)
	setne	%al
	andb	$1, %al
	movzbl	%al, %eax
	addq	$32, %rsp
	popq	%rbp
	.cfi_def_cfa %rsp, 8
	retq
.Lfunc_end76:
	.size	_ZN3MPI7Request4TestERNS_6StatusE, .Lfunc_end76-_ZN3MPI7Request4TestERNS_6StatusE
	.cfi_endproc
                                        # -- End function
	.section	.text._ZN3MPI7Request4TestEv,"axG",@progbits,_ZN3MPI7Request4TestEv,comdat
	.weak	_ZN3MPI7Request4TestEv          # -- Begin function _ZN3MPI7Request4TestEv
	.p2align	4, 0x90
	.type	_ZN3MPI7Request4TestEv,@function
_ZN3MPI7Request4TestEv:                 # @_ZN3MPI7Request4TestEv
	.cfi_startproc
# %bb.0:
	pushq	%rbp
	.cfi_def_cfa_offset 16
	.cfi_offset %rbp, -16
	movq	%rsp, %rbp
	.cfi_def_cfa_register %rbp
	subq	$16, %rsp
	movq	%rdi, -8(%rbp)
	movq	-8(%rbp), %rdi
	addq	$8, %rdi
	leaq	-12(%rbp), %rsi
	xorl	%eax, %eax
	movl	%eax, %edx
	callq	MPI_Test@PLT
	cmpl	$0, -12(%rbp)
	setne	%al
	andb	$1, %al
	movzbl	%al, %eax
	addq	$16, %rsp
	popq	%rbp
	.cfi_def_cfa %rsp, 8
	retq
.Lfunc_end77:
	.size	_ZN3MPI7Request4TestEv, .Lfunc_end77-_ZN3MPI7Request4TestEv
	.cfi_endproc
                                        # -- End function
	.section	.text._ZN3MPI7Request4FreeEv,"axG",@progbits,_ZN3MPI7Request4FreeEv,comdat
	.weak	_ZN3MPI7Request4FreeEv          # -- Begin function _ZN3MPI7Request4FreeEv
	.p2align	4, 0x90
	.type	_ZN3MPI7Request4FreeEv,@function
_ZN3MPI7Request4FreeEv:                 # @_ZN3MPI7Request4FreeEv
	.cfi_startproc
# %bb.0:
	pushq	%rbp
	.cfi_def_cfa_offset 16
	.cfi_offset %rbp, -16
	movq	%rsp, %rbp
	.cfi_def_cfa_register %rbp
	subq	$16, %rsp
	movq	%rdi, -8(%rbp)
	movq	-8(%rbp), %rdi
	addq	$8, %rdi
	callq	MPI_Request_free@PLT
	addq	$16, %rsp
	popq	%rbp
	.cfi_def_cfa %rsp, 8
	retq
.Lfunc_end78:
	.size	_ZN3MPI7Request4FreeEv, .Lfunc_end78-_ZN3MPI7Request4FreeEv
	.cfi_endproc
                                        # -- End function
	.section	.text._ZNK3MPI7Request6CancelEv,"axG",@progbits,_ZNK3MPI7Request6CancelEv,comdat
	.weak	_ZNK3MPI7Request6CancelEv       # -- Begin function _ZNK3MPI7Request6CancelEv
	.p2align	4, 0x90
	.type	_ZNK3MPI7Request6CancelEv,@function
_ZNK3MPI7Request6CancelEv:              # @_ZNK3MPI7Request6CancelEv
	.cfi_startproc
# %bb.0:
	pushq	%rbp
	.cfi_def_cfa_offset 16
	.cfi_offset %rbp, -16
	movq	%rsp, %rbp
	.cfi_def_cfa_register %rbp
	subq	$16, %rsp
	movq	%rdi, -8(%rbp)
	movq	-8(%rbp), %rdi
	addq	$8, %rdi
	callq	MPI_Cancel@PLT
	addq	$16, %rsp
	popq	%rbp
	.cfi_def_cfa %rsp, 8
	retq
.Lfunc_end79:
	.size	_ZNK3MPI7Request6CancelEv, .Lfunc_end79-_ZNK3MPI7Request6CancelEv
	.cfi_endproc
                                        # -- End function
	.section	.text._ZNK3MPI7Request10Get_statusERNS_6StatusE,"axG",@progbits,_ZNK3MPI7Request10Get_statusERNS_6StatusE,comdat
	.weak	_ZNK3MPI7Request10Get_statusERNS_6StatusE # -- Begin function _ZNK3MPI7Request10Get_statusERNS_6StatusE
	.p2align	4, 0x90
	.type	_ZNK3MPI7Request10Get_statusERNS_6StatusE,@function
_ZNK3MPI7Request10Get_statusERNS_6StatusE: # @_ZNK3MPI7Request10Get_statusERNS_6StatusE
	.cfi_startproc
# %bb.0:
	pushq	%rbp
	.cfi_def_cfa_offset 16
	.cfi_offset %rbp, -16
	movq	%rsp, %rbp
	.cfi_def_cfa_register %rbp
	subq	$48, %rsp
	movq	%rdi, -8(%rbp)
	movq	%rsi, -16(%rbp)
	movq	-8(%rbp), %rax
	movl	$0, -20(%rbp)
	movq	8(%rax), %rdi
	leaq	-20(%rbp), %rsi
	leaq	-48(%rbp), %rdx
	callq	MPI_Request_get_status@PLT
	cmpl	$0, -20(%rbp)
	je	.LBB80_2
# %bb.1:
	movq	-16(%rbp), %rdi
	leaq	-48(%rbp), %rsi
	callq	_ZN3MPI6StatusaSERK20ompi_status_public_t
.LBB80_2:
	cmpl	$0, -20(%rbp)
	setne	%al
	andb	$1, %al
	movzbl	%al, %eax
	addq	$48, %rsp
	popq	%rbp
	.cfi_def_cfa %rsp, 8
	retq
.Lfunc_end80:
	.size	_ZNK3MPI7Request10Get_statusERNS_6StatusE, .Lfunc_end80-_ZNK3MPI7Request10Get_statusERNS_6StatusE
	.cfi_endproc
                                        # -- End function
	.section	.text._ZNK3MPI7Request10Get_statusEv,"axG",@progbits,_ZNK3MPI7Request10Get_statusEv,comdat
	.weak	_ZNK3MPI7Request10Get_statusEv  # -- Begin function _ZNK3MPI7Request10Get_statusEv
	.p2align	4, 0x90
	.type	_ZNK3MPI7Request10Get_statusEv,@function
_ZNK3MPI7Request10Get_statusEv:         # @_ZNK3MPI7Request10Get_statusEv
	.cfi_startproc
# %bb.0:
	pushq	%rbp
	.cfi_def_cfa_offset 16
	.cfi_offset %rbp, -16
	movq	%rsp, %rbp
	.cfi_def_cfa_register %rbp
	subq	$16, %rsp
	movq	%rdi, -8(%rbp)
	movq	-8(%rbp), %rax
	movq	8(%rax), %rdi
	leaq	-12(%rbp), %rsi
	xorl	%eax, %eax
	movl	%eax, %edx
	callq	MPI_Request_get_status@PLT
	cmpl	$0, -12(%rbp)
	setne	%al
	andb	$1, %al
	movzbl	%al, %eax
	addq	$16, %rsp
	popq	%rbp
	.cfi_def_cfa %rsp, 8
	retq
.Lfunc_end81:
	.size	_ZNK3MPI7Request10Get_statusEv, .Lfunc_end81-_ZNK3MPI7Request10Get_statusEv
	.cfi_endproc
                                        # -- End function
	.section	.text._ZN3MPI8PrequestD2Ev,"axG",@progbits,_ZN3MPI8PrequestD2Ev,comdat
	.weak	_ZN3MPI8PrequestD2Ev            # -- Begin function _ZN3MPI8PrequestD2Ev
	.p2align	4, 0x90
	.type	_ZN3MPI8PrequestD2Ev,@function
_ZN3MPI8PrequestD2Ev:                   # @_ZN3MPI8PrequestD2Ev
	.cfi_startproc
# %bb.0:
	pushq	%rbp
	.cfi_def_cfa_offset 16
	.cfi_offset %rbp, -16
	movq	%rsp, %rbp
	.cfi_def_cfa_register %rbp
	subq	$16, %rsp
	movq	%rdi, -8(%rbp)
	movq	-8(%rbp), %rdi
	callq	_ZN3MPI7RequestD2Ev
	addq	$16, %rsp
	popq	%rbp
	.cfi_def_cfa %rsp, 8
	retq
.Lfunc_end82:
	.size	_ZN3MPI8PrequestD2Ev, .Lfunc_end82-_ZN3MPI8PrequestD2Ev
	.cfi_endproc
                                        # -- End function
	.section	.text._ZN3MPI8PrequestD0Ev,"axG",@progbits,_ZN3MPI8PrequestD0Ev,comdat
	.weak	_ZN3MPI8PrequestD0Ev            # -- Begin function _ZN3MPI8PrequestD0Ev
	.p2align	4, 0x90
	.type	_ZN3MPI8PrequestD0Ev,@function
_ZN3MPI8PrequestD0Ev:                   # @_ZN3MPI8PrequestD0Ev
	.cfi_startproc
# %bb.0:
	pushq	%rbp
	.cfi_def_cfa_offset 16
	.cfi_offset %rbp, -16
	movq	%rsp, %rbp
	.cfi_def_cfa_register %rbp
	subq	$16, %rsp
	movq	%rdi, -8(%rbp)
	movq	-8(%rbp), %rdi
	movq	%rdi, -16(%rbp)                 # 8-byte Spill
	callq	_ZN3MPI8PrequestD2Ev
	movq	-16(%rbp), %rdi                 # 8-byte Reload
	callq	_ZdlPv@PLT
	addq	$16, %rsp
	popq	%rbp
	.cfi_def_cfa %rsp, 8
	retq
.Lfunc_end83:
	.size	_ZN3MPI8PrequestD0Ev, .Lfunc_end83-_ZN3MPI8PrequestD0Ev
	.cfi_endproc
                                        # -- End function
	.section	.text._ZN3MPI8GrequestD2Ev,"axG",@progbits,_ZN3MPI8GrequestD2Ev,comdat
	.weak	_ZN3MPI8GrequestD2Ev            # -- Begin function _ZN3MPI8GrequestD2Ev
	.p2align	4, 0x90
	.type	_ZN3MPI8GrequestD2Ev,@function
_ZN3MPI8GrequestD2Ev:                   # @_ZN3MPI8GrequestD2Ev
	.cfi_startproc
# %bb.0:
	pushq	%rbp
	.cfi_def_cfa_offset 16
	.cfi_offset %rbp, -16
	movq	%rsp, %rbp
	.cfi_def_cfa_register %rbp
	subq	$16, %rsp
	movq	%rdi, -8(%rbp)
	movq	-8(%rbp), %rdi
	callq	_ZN3MPI7RequestD2Ev
	addq	$16, %rsp
	popq	%rbp
	.cfi_def_cfa %rsp, 8
	retq
.Lfunc_end84:
	.size	_ZN3MPI8GrequestD2Ev, .Lfunc_end84-_ZN3MPI8GrequestD2Ev
	.cfi_endproc
                                        # -- End function
	.section	.text._ZN3MPI8GrequestD0Ev,"axG",@progbits,_ZN3MPI8GrequestD0Ev,comdat
	.weak	_ZN3MPI8GrequestD0Ev            # -- Begin function _ZN3MPI8GrequestD0Ev
	.p2align	4, 0x90
	.type	_ZN3MPI8GrequestD0Ev,@function
_ZN3MPI8GrequestD0Ev:                   # @_ZN3MPI8GrequestD0Ev
	.cfi_startproc
# %bb.0:
	pushq	%rbp
	.cfi_def_cfa_offset 16
	.cfi_offset %rbp, -16
	movq	%rsp, %rbp
	.cfi_def_cfa_register %rbp
	subq	$16, %rsp
	movq	%rdi, -8(%rbp)
	movq	-8(%rbp), %rdi
	movq	%rdi, -16(%rbp)                 # 8-byte Spill
	callq	_ZN3MPI8GrequestD2Ev
	movq	-16(%rbp), %rdi                 # 8-byte Reload
	callq	_ZdlPv@PLT
	addq	$16, %rsp
	popq	%rbp
	.cfi_def_cfa %rsp, 8
	retq
.Lfunc_end85:
	.size	_ZN3MPI8GrequestD0Ev, .Lfunc_end85-_ZN3MPI8GrequestD0Ev
	.cfi_endproc
                                        # -- End function
	.section	.text._ZN3MPI5GroupD2Ev,"axG",@progbits,_ZN3MPI5GroupD2Ev,comdat
	.weak	_ZN3MPI5GroupD2Ev               # -- Begin function _ZN3MPI5GroupD2Ev
	.p2align	4, 0x90
	.type	_ZN3MPI5GroupD2Ev,@function
_ZN3MPI5GroupD2Ev:                      # @_ZN3MPI5GroupD2Ev
	.cfi_startproc
# %bb.0:
	pushq	%rbp
	.cfi_def_cfa_offset 16
	.cfi_offset %rbp, -16
	movq	%rsp, %rbp
	.cfi_def_cfa_register %rbp
	movq	%rdi, -8(%rbp)
	popq	%rbp
	.cfi_def_cfa %rsp, 8
	retq
.Lfunc_end86:
	.size	_ZN3MPI5GroupD2Ev, .Lfunc_end86-_ZN3MPI5GroupD2Ev
	.cfi_endproc
                                        # -- End function
	.section	.text._ZN3MPI5GroupD0Ev,"axG",@progbits,_ZN3MPI5GroupD0Ev,comdat
	.weak	_ZN3MPI5GroupD0Ev               # -- Begin function _ZN3MPI5GroupD0Ev
	.p2align	4, 0x90
	.type	_ZN3MPI5GroupD0Ev,@function
_ZN3MPI5GroupD0Ev:                      # @_ZN3MPI5GroupD0Ev
	.cfi_startproc
# %bb.0:
	pushq	%rbp
	.cfi_def_cfa_offset 16
	.cfi_offset %rbp, -16
	movq	%rsp, %rbp
	.cfi_def_cfa_register %rbp
	subq	$16, %rsp
	movq	%rdi, -8(%rbp)
	movq	-8(%rbp), %rdi
	movq	%rdi, -16(%rbp)                 # 8-byte Spill
	callq	_ZN3MPI5GroupD2Ev
	movq	-16(%rbp), %rdi                 # 8-byte Reload
	callq	_ZdlPv@PLT
	addq	$16, %rsp
	popq	%rbp
	.cfi_def_cfa %rsp, 8
	retq
.Lfunc_end87:
	.size	_ZN3MPI5GroupD0Ev, .Lfunc_end87-_ZN3MPI5GroupD0Ev
	.cfi_endproc
                                        # -- End function
	.section	.text._ZNK3MPI5Group8Get_rankEv,"axG",@progbits,_ZNK3MPI5Group8Get_rankEv,comdat
	.weak	_ZNK3MPI5Group8Get_rankEv       # -- Begin function _ZNK3MPI5Group8Get_rankEv
	.p2align	4, 0x90
	.type	_ZNK3MPI5Group8Get_rankEv,@function
_ZNK3MPI5Group8Get_rankEv:              # @_ZNK3MPI5Group8Get_rankEv
	.cfi_startproc
# %bb.0:
	pushq	%rbp
	.cfi_def_cfa_offset 16
	.cfi_offset %rbp, -16
	movq	%rsp, %rbp
	.cfi_def_cfa_register %rbp
	subq	$16, %rsp
	movq	%rdi, -8(%rbp)
	movq	-8(%rbp), %rax
	movq	8(%rax), %rdi
	leaq	-12(%rbp), %rsi
	callq	MPI_Group_rank@PLT
	movl	-12(%rbp), %eax
	addq	$16, %rsp
	popq	%rbp
	.cfi_def_cfa %rsp, 8
	retq
.Lfunc_end88:
	.size	_ZNK3MPI5Group8Get_rankEv, .Lfunc_end88-_ZNK3MPI5Group8Get_rankEv
	.cfi_endproc
                                        # -- End function
	.section	.text._ZNK3MPI5Group4InclEiPKi,"axG",@progbits,_ZNK3MPI5Group4InclEiPKi,comdat
	.weak	_ZNK3MPI5Group4InclEiPKi        # -- Begin function _ZNK3MPI5Group4InclEiPKi
	.p2align	4, 0x90
	.type	_ZNK3MPI5Group4InclEiPKi,@function
_ZNK3MPI5Group4InclEiPKi:               # @_ZNK3MPI5Group4InclEiPKi
	.cfi_startproc
# %bb.0:
	pushq	%rbp
	.cfi_def_cfa_offset 16
	.cfi_offset %rbp, -16
	movq	%rsp, %rbp
	.cfi_def_cfa_register %rbp
	subq	$64, %rsp
	movq	%rdi, -56(%rbp)                 # 8-byte Spill
	movq	%rdi, %rax
	movq	%rax, -48(%rbp)                 # 8-byte Spill
	movq	%rdi, -8(%rbp)
	movq	%rsi, -16(%rbp)
	movl	%edx, -20(%rbp)
	movq	%rcx, -32(%rbp)
	movq	-16(%rbp), %rax
	movq	8(%rax), %rdi
	movl	-20(%rbp), %esi
	movq	-32(%rbp), %rdx
	leaq	-40(%rbp), %rcx
	callq	MPI_Group_incl@PLT
	movq	-56(%rbp), %rdi                 # 8-byte Reload
	movq	-40(%rbp), %rsi
	callq	_ZN3MPI5GroupC2EP12ompi_group_t
	movq	-48(%rbp), %rax                 # 8-byte Reload
	addq	$64, %rsp
	popq	%rbp
	.cfi_def_cfa %rsp, 8
	retq
.Lfunc_end89:
	.size	_ZNK3MPI5Group4InclEiPKi, .Lfunc_end89-_ZNK3MPI5Group4InclEiPKi
	.cfi_endproc
                                        # -- End function
	.section	.text._ZNK3MPI5Group4ExclEiPKi,"axG",@progbits,_ZNK3MPI5Group4ExclEiPKi,comdat
	.weak	_ZNK3MPI5Group4ExclEiPKi        # -- Begin function _ZNK3MPI5Group4ExclEiPKi
	.p2align	4, 0x90
	.type	_ZNK3MPI5Group4ExclEiPKi,@function
_ZNK3MPI5Group4ExclEiPKi:               # @_ZNK3MPI5Group4ExclEiPKi
	.cfi_startproc
# %bb.0:
	pushq	%rbp
	.cfi_def_cfa_offset 16
	.cfi_offset %rbp, -16
	movq	%rsp, %rbp
	.cfi_def_cfa_register %rbp
	subq	$64, %rsp
	movq	%rdi, -56(%rbp)                 # 8-byte Spill
	movq	%rdi, %rax
	movq	%rax, -48(%rbp)                 # 8-byte Spill
	movq	%rdi, -8(%rbp)
	movq	%rsi, -16(%rbp)
	movl	%edx, -20(%rbp)
	movq	%rcx, -32(%rbp)
	movq	-16(%rbp), %rax
	movq	8(%rax), %rdi
	movl	-20(%rbp), %esi
	movq	-32(%rbp), %rdx
	leaq	-40(%rbp), %rcx
	callq	MPI_Group_excl@PLT
	movq	-56(%rbp), %rdi                 # 8-byte Reload
	movq	-40(%rbp), %rsi
	callq	_ZN3MPI5GroupC2EP12ompi_group_t
	movq	-48(%rbp), %rax                 # 8-byte Reload
	addq	$64, %rsp
	popq	%rbp
	.cfi_def_cfa %rsp, 8
	retq
.Lfunc_end90:
	.size	_ZNK3MPI5Group4ExclEiPKi, .Lfunc_end90-_ZNK3MPI5Group4ExclEiPKi
	.cfi_endproc
                                        # -- End function
	.section	.text._ZNK3MPI5Group10Range_inclEiPA3_Ki,"axG",@progbits,_ZNK3MPI5Group10Range_inclEiPA3_Ki,comdat
	.weak	_ZNK3MPI5Group10Range_inclEiPA3_Ki # -- Begin function _ZNK3MPI5Group10Range_inclEiPA3_Ki
	.p2align	4, 0x90
	.type	_ZNK3MPI5Group10Range_inclEiPA3_Ki,@function
_ZNK3MPI5Group10Range_inclEiPA3_Ki:     # @_ZNK3MPI5Group10Range_inclEiPA3_Ki
	.cfi_startproc
# %bb.0:
	pushq	%rbp
	.cfi_def_cfa_offset 16
	.cfi_offset %rbp, -16
	movq	%rsp, %rbp
	.cfi_def_cfa_register %rbp
	subq	$64, %rsp
	movq	%rdi, -56(%rbp)                 # 8-byte Spill
	movq	%rdi, %rax
	movq	%rax, -48(%rbp)                 # 8-byte Spill
	movq	%rdi, -8(%rbp)
	movq	%rsi, -16(%rbp)
	movl	%edx, -20(%rbp)
	movq	%rcx, -32(%rbp)
	movq	-16(%rbp), %rax
	movq	8(%rax), %rdi
	movl	-20(%rbp), %esi
	movq	-32(%rbp), %rdx
	leaq	-40(%rbp), %rcx
	callq	MPI_Group_range_incl@PLT
	movq	-56(%rbp), %rdi                 # 8-byte Reload
	movq	-40(%rbp), %rsi
	callq	_ZN3MPI5GroupC2EP12ompi_group_t
	movq	-48(%rbp), %rax                 # 8-byte Reload
	addq	$64, %rsp
	popq	%rbp
	.cfi_def_cfa %rsp, 8
	retq
.Lfunc_end91:
	.size	_ZNK3MPI5Group10Range_inclEiPA3_Ki, .Lfunc_end91-_ZNK3MPI5Group10Range_inclEiPA3_Ki
	.cfi_endproc
                                        # -- End function
	.section	.text._ZNK3MPI5Group10Range_exclEiPA3_Ki,"axG",@progbits,_ZNK3MPI5Group10Range_exclEiPA3_Ki,comdat
	.weak	_ZNK3MPI5Group10Range_exclEiPA3_Ki # -- Begin function _ZNK3MPI5Group10Range_exclEiPA3_Ki
	.p2align	4, 0x90
	.type	_ZNK3MPI5Group10Range_exclEiPA3_Ki,@function
_ZNK3MPI5Group10Range_exclEiPA3_Ki:     # @_ZNK3MPI5Group10Range_exclEiPA3_Ki
	.cfi_startproc
# %bb.0:
	pushq	%rbp
	.cfi_def_cfa_offset 16
	.cfi_offset %rbp, -16
	movq	%rsp, %rbp
	.cfi_def_cfa_register %rbp
	subq	$64, %rsp
	movq	%rdi, -56(%rbp)                 # 8-byte Spill
	movq	%rdi, %rax
	movq	%rax, -48(%rbp)                 # 8-byte Spill
	movq	%rdi, -8(%rbp)
	movq	%rsi, -16(%rbp)
	movl	%edx, -20(%rbp)
	movq	%rcx, -32(%rbp)
	movq	-16(%rbp), %rax
	movq	8(%rax), %rdi
	movl	-20(%rbp), %esi
	movq	-32(%rbp), %rdx
	leaq	-40(%rbp), %rcx
	callq	MPI_Group_range_excl@PLT
	movq	-56(%rbp), %rdi                 # 8-byte Reload
	movq	-40(%rbp), %rsi
	callq	_ZN3MPI5GroupC2EP12ompi_group_t
	movq	-48(%rbp), %rax                 # 8-byte Reload
	addq	$64, %rsp
	popq	%rbp
	.cfi_def_cfa %rsp, 8
	retq
.Lfunc_end92:
	.size	_ZNK3MPI5Group10Range_exclEiPA3_Ki, .Lfunc_end92-_ZNK3MPI5Group10Range_exclEiPA3_Ki
	.cfi_endproc
                                        # -- End function
	.section	.text._ZN3MPI5Group4FreeEv,"axG",@progbits,_ZN3MPI5Group4FreeEv,comdat
	.weak	_ZN3MPI5Group4FreeEv            # -- Begin function _ZN3MPI5Group4FreeEv
	.p2align	4, 0x90
	.type	_ZN3MPI5Group4FreeEv,@function
_ZN3MPI5Group4FreeEv:                   # @_ZN3MPI5Group4FreeEv
	.cfi_startproc
# %bb.0:
	pushq	%rbp
	.cfi_def_cfa_offset 16
	.cfi_offset %rbp, -16
	movq	%rsp, %rbp
	.cfi_def_cfa_register %rbp
	subq	$16, %rsp
	movq	%rdi, -8(%rbp)
	movq	-8(%rbp), %rdi
	addq	$8, %rdi
	callq	MPI_Group_free@PLT
	addq	$16, %rsp
	popq	%rbp
	.cfi_def_cfa %rsp, 8
	retq
.Lfunc_end93:
	.size	_ZN3MPI5Group4FreeEv, .Lfunc_end93-_ZN3MPI5Group4FreeEv
	.cfi_endproc
                                        # -- End function
	.section	.text._ZN3MPI4CommD2Ev,"axG",@progbits,_ZN3MPI4CommD2Ev,comdat
	.weak	_ZN3MPI4CommD2Ev                # -- Begin function _ZN3MPI4CommD2Ev
	.p2align	4, 0x90
	.type	_ZN3MPI4CommD2Ev,@function
_ZN3MPI4CommD2Ev:                       # @_ZN3MPI4CommD2Ev
	.cfi_startproc
# %bb.0:
	pushq	%rbp
	.cfi_def_cfa_offset 16
	.cfi_offset %rbp, -16
	movq	%rsp, %rbp
	.cfi_def_cfa_register %rbp
	subq	$16, %rsp
	movq	%rdi, -8(%rbp)
	movq	-8(%rbp), %rdi
	callq	_ZN3MPI9Comm_NullD2Ev
	addq	$16, %rsp
	popq	%rbp
	.cfi_def_cfa %rsp, 8
	retq
.Lfunc_end94:
	.size	_ZN3MPI4CommD2Ev, .Lfunc_end94-_ZN3MPI4CommD2Ev
	.cfi_endproc
                                        # -- End function
	.section	.text._ZN3MPI4CommD0Ev,"axG",@progbits,_ZN3MPI4CommD0Ev,comdat
	.weak	_ZN3MPI4CommD0Ev                # -- Begin function _ZN3MPI4CommD0Ev
	.p2align	4, 0x90
	.type	_ZN3MPI4CommD0Ev,@function
_ZN3MPI4CommD0Ev:                       # @_ZN3MPI4CommD0Ev
	.cfi_startproc
# %bb.0:
	pushq	%rbp
	.cfi_def_cfa_offset 16
	.cfi_offset %rbp, -16
	movq	%rsp, %rbp
	.cfi_def_cfa_register %rbp
	movq	%rdi, -8(%rbp)
	ud2
.Lfunc_end95:
	.size	_ZN3MPI4CommD0Ev, .Lfunc_end95-_ZN3MPI4CommD0Ev
	.cfi_endproc
                                        # -- End function
	.section	.text._ZNK3MPI4Comm4RecvEPviRKNS_8DatatypeEiiRNS_6StatusE,"axG",@progbits,_ZNK3MPI4Comm4RecvEPviRKNS_8DatatypeEiiRNS_6StatusE,comdat
	.weak	_ZNK3MPI4Comm4RecvEPviRKNS_8DatatypeEiiRNS_6StatusE # -- Begin function _ZNK3MPI4Comm4RecvEPviRKNS_8DatatypeEiiRNS_6StatusE
	.p2align	4, 0x90
	.type	_ZNK3MPI4Comm4RecvEPviRKNS_8DatatypeEiiRNS_6StatusE,@function
_ZNK3MPI4Comm4RecvEPviRKNS_8DatatypeEiiRNS_6StatusE: # @_ZNK3MPI4Comm4RecvEPviRKNS_8DatatypeEiiRNS_6StatusE
	.cfi_startproc
# %bb.0:
	pushq	%rbp
	.cfi_def_cfa_offset 16
	.cfi_offset %rbp, -16
	movq	%rsp, %rbp
	.cfi_def_cfa_register %rbp
	subq	$80, %rsp
	movq	16(%rbp), %rax
	movq	%rdi, -8(%rbp)
	movq	%rsi, -16(%rbp)
	movl	%edx, -20(%rbp)
	movq	%rcx, -32(%rbp)
	movl	%r8d, -36(%rbp)
	movl	%r9d, -40(%rbp)
	movq	-8(%rbp), %rax
	movq	%rax, -48(%rbp)                 # 8-byte Spill
	movq	-16(%rbp), %rax
	movq	%rax, -64(%rbp)                 # 8-byte Spill
	movl	-20(%rbp), %eax
	movl	%eax, -52(%rbp)                 # 4-byte Spill
	movq	-32(%rbp), %rdi
	callq	_ZNK3MPI8DatatypecvP15ompi_datatype_tEv
	movq	-64(%rbp), %rdi                 # 8-byte Reload
	movl	-52(%rbp), %esi                 # 4-byte Reload
	movq	%rax, %rdx
	movq	-48(%rbp), %rax                 # 8-byte Reload
	movl	-36(%rbp), %ecx
	movl	-40(%rbp), %r8d
	movq	8(%rax), %r9
	movq	16(%rbp), %rax
	addq	$8, %rax
	movq	%rax, (%rsp)
	callq	MPI_Recv@PLT
	addq	$80, %rsp
	popq	%rbp
	.cfi_def_cfa %rsp, 8
	retq
.Lfunc_end96:
	.size	_ZNK3MPI4Comm4RecvEPviRKNS_8DatatypeEiiRNS_6StatusE, .Lfunc_end96-_ZNK3MPI4Comm4RecvEPviRKNS_8DatatypeEiiRNS_6StatusE
	.cfi_endproc
                                        # -- End function
	.section	.text._ZNK3MPI4Comm4RecvEPviRKNS_8DatatypeEii,"axG",@progbits,_ZNK3MPI4Comm4RecvEPviRKNS_8DatatypeEii,comdat
	.weak	_ZNK3MPI4Comm4RecvEPviRKNS_8DatatypeEii # -- Begin function _ZNK3MPI4Comm4RecvEPviRKNS_8DatatypeEii
	.p2align	4, 0x90
	.type	_ZNK3MPI4Comm4RecvEPviRKNS_8DatatypeEii,@function
_ZNK3MPI4Comm4RecvEPviRKNS_8DatatypeEii: # @_ZNK3MPI4Comm4RecvEPviRKNS_8DatatypeEii
	.cfi_startproc
# %bb.0:
	pushq	%rbp
	.cfi_def_cfa_offset 16
	.cfi_offset %rbp, -16
	movq	%rsp, %rbp
	.cfi_def_cfa_register %rbp
	subq	$80, %rsp
	movq	%rdi, -8(%rbp)
	movq	%rsi, -16(%rbp)
	movl	%edx, -20(%rbp)
	movq	%rcx, -32(%rbp)
	movl	%r8d, -36(%rbp)
	movl	%r9d, -40(%rbp)
	movq	-8(%rbp), %rax
	movq	%rax, -48(%rbp)                 # 8-byte Spill
	movq	-16(%rbp), %rax
	movq	%rax, -64(%rbp)                 # 8-byte Spill
	movl	-20(%rbp), %eax
	movl	%eax, -52(%rbp)                 # 4-byte Spill
	movq	-32(%rbp), %rdi
	callq	_ZNK3MPI8DatatypecvP15ompi_datatype_tEv
	movq	-64(%rbp), %rdi                 # 8-byte Reload
	movl	-52(%rbp), %esi                 # 4-byte Reload
	movq	%rax, %rdx
	movq	-48(%rbp), %rax                 # 8-byte Reload
	movl	-36(%rbp), %ecx
	movl	-40(%rbp), %r8d
	movq	8(%rax), %r9
	xorl	%eax, %eax
                                        # kill: def $rax killed $eax
	movq	$0, (%rsp)
	callq	MPI_Recv@PLT
	addq	$80, %rsp
	popq	%rbp
	.cfi_def_cfa %rsp, 8
	retq
.Lfunc_end97:
	.size	_ZNK3MPI4Comm4RecvEPviRKNS_8DatatypeEii, .Lfunc_end97-_ZNK3MPI4Comm4RecvEPviRKNS_8DatatypeEii
	.cfi_endproc
                                        # -- End function
	.section	.text._ZNK3MPI4Comm5BsendEPKviRKNS_8DatatypeEii,"axG",@progbits,_ZNK3MPI4Comm5BsendEPKviRKNS_8DatatypeEii,comdat
	.weak	_ZNK3MPI4Comm5BsendEPKviRKNS_8DatatypeEii # -- Begin function _ZNK3MPI4Comm5BsendEPKviRKNS_8DatatypeEii
	.p2align	4, 0x90
	.type	_ZNK3MPI4Comm5BsendEPKviRKNS_8DatatypeEii,@function
_ZNK3MPI4Comm5BsendEPKviRKNS_8DatatypeEii: # @_ZNK3MPI4Comm5BsendEPKviRKNS_8DatatypeEii
	.cfi_startproc
# %bb.0:
	pushq	%rbp
	.cfi_def_cfa_offset 16
	.cfi_offset %rbp, -16
	movq	%rsp, %rbp
	.cfi_def_cfa_register %rbp
	subq	$64, %rsp
	movq	%rdi, -8(%rbp)
	movq	%rsi, -16(%rbp)
	movl	%edx, -20(%rbp)
	movq	%rcx, -32(%rbp)
	movl	%r8d, -36(%rbp)
	movl	%r9d, -40(%rbp)
	movq	-8(%rbp), %rax
	movq	%rax, -48(%rbp)                 # 8-byte Spill
	movq	-16(%rbp), %rax
	movq	%rax, -64(%rbp)                 # 8-byte Spill
	movl	-20(%rbp), %eax
	movl	%eax, -52(%rbp)                 # 4-byte Spill
	movq	-32(%rbp), %rdi
	callq	_ZNK3MPI8DatatypecvP15ompi_datatype_tEv
	movq	-64(%rbp), %rdi                 # 8-byte Reload
	movl	-52(%rbp), %esi                 # 4-byte Reload
	movq	%rax, %rdx
	movq	-48(%rbp), %rax                 # 8-byte Reload
	movl	-36(%rbp), %ecx
	movl	-40(%rbp), %r8d
	movq	8(%rax), %r9
	callq	MPI_Bsend@PLT
	addq	$64, %rsp
	popq	%rbp
	.cfi_def_cfa %rsp, 8
	retq
.Lfunc_end98:
	.size	_ZNK3MPI4Comm5BsendEPKviRKNS_8DatatypeEii, .Lfunc_end98-_ZNK3MPI4Comm5BsendEPKviRKNS_8DatatypeEii
	.cfi_endproc
                                        # -- End function
	.section	.text._ZNK3MPI4Comm5SsendEPKviRKNS_8DatatypeEii,"axG",@progbits,_ZNK3MPI4Comm5SsendEPKviRKNS_8DatatypeEii,comdat
	.weak	_ZNK3MPI4Comm5SsendEPKviRKNS_8DatatypeEii # -- Begin function _ZNK3MPI4Comm5SsendEPKviRKNS_8DatatypeEii
	.p2align	4, 0x90
	.type	_ZNK3MPI4Comm5SsendEPKviRKNS_8DatatypeEii,@function
_ZNK3MPI4Comm5SsendEPKviRKNS_8DatatypeEii: # @_ZNK3MPI4Comm5SsendEPKviRKNS_8DatatypeEii
	.cfi_startproc
# %bb.0:
	pushq	%rbp
	.cfi_def_cfa_offset 16
	.cfi_offset %rbp, -16
	movq	%rsp, %rbp
	.cfi_def_cfa_register %rbp
	subq	$64, %rsp
	movq	%rdi, -8(%rbp)
	movq	%rsi, -16(%rbp)
	movl	%edx, -20(%rbp)
	movq	%rcx, -32(%rbp)
	movl	%r8d, -36(%rbp)
	movl	%r9d, -40(%rbp)
	movq	-8(%rbp), %rax
	movq	%rax, -48(%rbp)                 # 8-byte Spill
	movq	-16(%rbp), %rax
	movq	%rax, -64(%rbp)                 # 8-byte Spill
	movl	-20(%rbp), %eax
	movl	%eax, -52(%rbp)                 # 4-byte Spill
	movq	-32(%rbp), %rdi
	callq	_ZNK3MPI8DatatypecvP15ompi_datatype_tEv
	movq	-64(%rbp), %rdi                 # 8-byte Reload
	movl	-52(%rbp), %esi                 # 4-byte Reload
	movq	%rax, %rdx
	movq	-48(%rbp), %rax                 # 8-byte Reload
	movl	-36(%rbp), %ecx
	movl	-40(%rbp), %r8d
	movq	8(%rax), %r9
	callq	MPI_Ssend@PLT
	addq	$64, %rsp
	popq	%rbp
	.cfi_def_cfa %rsp, 8
	retq
.Lfunc_end99:
	.size	_ZNK3MPI4Comm5SsendEPKviRKNS_8DatatypeEii, .Lfunc_end99-_ZNK3MPI4Comm5SsendEPKviRKNS_8DatatypeEii
	.cfi_endproc
                                        # -- End function
	.section	.text._ZNK3MPI4Comm5RsendEPKviRKNS_8DatatypeEii,"axG",@progbits,_ZNK3MPI4Comm5RsendEPKviRKNS_8DatatypeEii,comdat
	.weak	_ZNK3MPI4Comm5RsendEPKviRKNS_8DatatypeEii # -- Begin function _ZNK3MPI4Comm5RsendEPKviRKNS_8DatatypeEii
	.p2align	4, 0x90
	.type	_ZNK3MPI4Comm5RsendEPKviRKNS_8DatatypeEii,@function
_ZNK3MPI4Comm5RsendEPKviRKNS_8DatatypeEii: # @_ZNK3MPI4Comm5RsendEPKviRKNS_8DatatypeEii
	.cfi_startproc
# %bb.0:
	pushq	%rbp
	.cfi_def_cfa_offset 16
	.cfi_offset %rbp, -16
	movq	%rsp, %rbp
	.cfi_def_cfa_register %rbp
	subq	$64, %rsp
	movq	%rdi, -8(%rbp)
	movq	%rsi, -16(%rbp)
	movl	%edx, -20(%rbp)
	movq	%rcx, -32(%rbp)
	movl	%r8d, -36(%rbp)
	movl	%r9d, -40(%rbp)
	movq	-8(%rbp), %rax
	movq	%rax, -48(%rbp)                 # 8-byte Spill
	movq	-16(%rbp), %rax
	movq	%rax, -64(%rbp)                 # 8-byte Spill
	movl	-20(%rbp), %eax
	movl	%eax, -52(%rbp)                 # 4-byte Spill
	movq	-32(%rbp), %rdi
	callq	_ZNK3MPI8DatatypecvP15ompi_datatype_tEv
	movq	-64(%rbp), %rdi                 # 8-byte Reload
	movl	-52(%rbp), %esi                 # 4-byte Reload
	movq	%rax, %rdx
	movq	-48(%rbp), %rax                 # 8-byte Reload
	movl	-36(%rbp), %ecx
	movl	-40(%rbp), %r8d
	movq	8(%rax), %r9
	callq	MPI_Rsend@PLT
	addq	$64, %rsp
	popq	%rbp
	.cfi_def_cfa %rsp, 8
	retq
.Lfunc_end100:
	.size	_ZNK3MPI4Comm5RsendEPKviRKNS_8DatatypeEii, .Lfunc_end100-_ZNK3MPI4Comm5RsendEPKviRKNS_8DatatypeEii
	.cfi_endproc
                                        # -- End function
	.section	.text._ZNK3MPI4Comm5IsendEPKviRKNS_8DatatypeEii,"axG",@progbits,_ZNK3MPI4Comm5IsendEPKviRKNS_8DatatypeEii,comdat
	.weak	_ZNK3MPI4Comm5IsendEPKviRKNS_8DatatypeEii # -- Begin function _ZNK3MPI4Comm5IsendEPKviRKNS_8DatatypeEii
	.p2align	4, 0x90
	.type	_ZNK3MPI4Comm5IsendEPKviRKNS_8DatatypeEii,@function
_ZNK3MPI4Comm5IsendEPKviRKNS_8DatatypeEii: # @_ZNK3MPI4Comm5IsendEPKviRKNS_8DatatypeEii
	.cfi_startproc
# %bb.0:
	pushq	%rbp
	.cfi_def_cfa_offset 16
	.cfi_offset %rbp, -16
	movq	%rsp, %rbp
	.cfi_def_cfa_register %rbp
	subq	$112, %rsp
	movq	%rdi, -72(%rbp)                 # 8-byte Spill
	movq	%rdi, %rax
	movq	%rax, -64(%rbp)                 # 8-byte Spill
	movl	16(%rbp), %eax
	movq	%rdi, -8(%rbp)
	movq	%rsi, -16(%rbp)
	movq	%rdx, -24(%rbp)
	movl	%ecx, -28(%rbp)
	movq	%r8, -40(%rbp)
	movl	%r9d, -44(%rbp)
	movq	-16(%rbp), %rax
	movq	%rax, -80(%rbp)                 # 8-byte Spill
	movq	-24(%rbp), %rax
	movq	%rax, -96(%rbp)                 # 8-byte Spill
	movl	-28(%rbp), %eax
	movl	%eax, -84(%rbp)                 # 4-byte Spill
	movq	-40(%rbp), %rdi
	callq	_ZNK3MPI8DatatypecvP15ompi_datatype_tEv
	movq	-96(%rbp), %rdi                 # 8-byte Reload
	movl	-84(%rbp), %esi                 # 4-byte Reload
	movq	%rax, %rdx
	movq	-80(%rbp), %rax                 # 8-byte Reload
	movl	-44(%rbp), %ecx
	movl	16(%rbp), %r8d
	movq	8(%rax), %r9
	leaq	-56(%rbp), %rax
	movq	%rax, (%rsp)
	callq	MPI_Isend@PLT
	movq	-72(%rbp), %rdi                 # 8-byte Reload
	movq	-56(%rbp), %rsi
	callq	_ZN3MPI7RequestC2EP14ompi_request_t
	movq	-64(%rbp), %rax                 # 8-byte Reload
	addq	$112, %rsp
	popq	%rbp
	.cfi_def_cfa %rsp, 8
	retq
.Lfunc_end101:
	.size	_ZNK3MPI4Comm5IsendEPKviRKNS_8DatatypeEii, .Lfunc_end101-_ZNK3MPI4Comm5IsendEPKviRKNS_8DatatypeEii
	.cfi_endproc
                                        # -- End function
	.section	.text._ZNK3MPI4Comm6IbsendEPKviRKNS_8DatatypeEii,"axG",@progbits,_ZNK3MPI4Comm6IbsendEPKviRKNS_8DatatypeEii,comdat
	.weak	_ZNK3MPI4Comm6IbsendEPKviRKNS_8DatatypeEii # -- Begin function _ZNK3MPI4Comm6IbsendEPKviRKNS_8DatatypeEii
	.p2align	4, 0x90
	.type	_ZNK3MPI4Comm6IbsendEPKviRKNS_8DatatypeEii,@function
_ZNK3MPI4Comm6IbsendEPKviRKNS_8DatatypeEii: # @_ZNK3MPI4Comm6IbsendEPKviRKNS_8DatatypeEii
	.cfi_startproc
# %bb.0:
	pushq	%rbp
	.cfi_def_cfa_offset 16
	.cfi_offset %rbp, -16
	movq	%rsp, %rbp
	.cfi_def_cfa_register %rbp
	subq	$112, %rsp
	movq	%rdi, -72(%rbp)                 # 8-byte Spill
	movq	%rdi, %rax
	movq	%rax, -64(%rbp)                 # 8-byte Spill
	movl	16(%rbp), %eax
	movq	%rdi, -8(%rbp)
	movq	%rsi, -16(%rbp)
	movq	%rdx, -24(%rbp)
	movl	%ecx, -28(%rbp)
	movq	%r8, -40(%rbp)
	movl	%r9d, -44(%rbp)
	movq	-16(%rbp), %rax
	movq	%rax, -80(%rbp)                 # 8-byte Spill
	movq	-24(%rbp), %rax
	movq	%rax, -96(%rbp)                 # 8-byte Spill
	movl	-28(%rbp), %eax
	movl	%eax, -84(%rbp)                 # 4-byte Spill
	movq	-40(%rbp), %rdi
	callq	_ZNK3MPI8DatatypecvP15ompi_datatype_tEv
	movq	-96(%rbp), %rdi                 # 8-byte Reload
	movl	-84(%rbp), %esi                 # 4-byte Reload
	movq	%rax, %rdx
	movq	-80(%rbp), %rax                 # 8-byte Reload
	movl	-44(%rbp), %ecx
	movl	16(%rbp), %r8d
	movq	8(%rax), %r9
	leaq	-56(%rbp), %rax
	movq	%rax, (%rsp)
	callq	MPI_Ibsend@PLT
	movq	-72(%rbp), %rdi                 # 8-byte Reload
	movq	-56(%rbp), %rsi
	callq	_ZN3MPI7RequestC2EP14ompi_request_t
	movq	-64(%rbp), %rax                 # 8-byte Reload
	addq	$112, %rsp
	popq	%rbp
	.cfi_def_cfa %rsp, 8
	retq
.Lfunc_end102:
	.size	_ZNK3MPI4Comm6IbsendEPKviRKNS_8DatatypeEii, .Lfunc_end102-_ZNK3MPI4Comm6IbsendEPKviRKNS_8DatatypeEii
	.cfi_endproc
                                        # -- End function
	.section	.text._ZNK3MPI4Comm6IssendEPKviRKNS_8DatatypeEii,"axG",@progbits,_ZNK3MPI4Comm6IssendEPKviRKNS_8DatatypeEii,comdat
	.weak	_ZNK3MPI4Comm6IssendEPKviRKNS_8DatatypeEii # -- Begin function _ZNK3MPI4Comm6IssendEPKviRKNS_8DatatypeEii
	.p2align	4, 0x90
	.type	_ZNK3MPI4Comm6IssendEPKviRKNS_8DatatypeEii,@function
_ZNK3MPI4Comm6IssendEPKviRKNS_8DatatypeEii: # @_ZNK3MPI4Comm6IssendEPKviRKNS_8DatatypeEii
	.cfi_startproc
# %bb.0:
	pushq	%rbp
	.cfi_def_cfa_offset 16
	.cfi_offset %rbp, -16
	movq	%rsp, %rbp
	.cfi_def_cfa_register %rbp
	subq	$112, %rsp
	movq	%rdi, -72(%rbp)                 # 8-byte Spill
	movq	%rdi, %rax
	movq	%rax, -64(%rbp)                 # 8-byte Spill
	movl	16(%rbp), %eax
	movq	%rdi, -8(%rbp)
	movq	%rsi, -16(%rbp)
	movq	%rdx, -24(%rbp)
	movl	%ecx, -28(%rbp)
	movq	%r8, -40(%rbp)
	movl	%r9d, -44(%rbp)
	movq	-16(%rbp), %rax
	movq	%rax, -80(%rbp)                 # 8-byte Spill
	movq	-24(%rbp), %rax
	movq	%rax, -96(%rbp)                 # 8-byte Spill
	movl	-28(%rbp), %eax
	movl	%eax, -84(%rbp)                 # 4-byte Spill
	movq	-40(%rbp), %rdi
	callq	_ZNK3MPI8DatatypecvP15ompi_datatype_tEv
	movq	-96(%rbp), %rdi                 # 8-byte Reload
	movl	-84(%rbp), %esi                 # 4-byte Reload
	movq	%rax, %rdx
	movq	-80(%rbp), %rax                 # 8-byte Reload
	movl	-44(%rbp), %ecx
	movl	16(%rbp), %r8d
	movq	8(%rax), %r9
	leaq	-56(%rbp), %rax
	movq	%rax, (%rsp)
	callq	MPI_Issend@PLT
	movq	-72(%rbp), %rdi                 # 8-byte Reload
	movq	-56(%rbp), %rsi
	callq	_ZN3MPI7RequestC2EP14ompi_request_t
	movq	-64(%rbp), %rax                 # 8-byte Reload
	addq	$112, %rsp
	popq	%rbp
	.cfi_def_cfa %rsp, 8
	retq
.Lfunc_end103:
	.size	_ZNK3MPI4Comm6IssendEPKviRKNS_8DatatypeEii, .Lfunc_end103-_ZNK3MPI4Comm6IssendEPKviRKNS_8DatatypeEii
	.cfi_endproc
                                        # -- End function
	.section	.text._ZNK3MPI4Comm6IrsendEPKviRKNS_8DatatypeEii,"axG",@progbits,_ZNK3MPI4Comm6IrsendEPKviRKNS_8DatatypeEii,comdat
	.weak	_ZNK3MPI4Comm6IrsendEPKviRKNS_8DatatypeEii # -- Begin function _ZNK3MPI4Comm6IrsendEPKviRKNS_8DatatypeEii
	.p2align	4, 0x90
	.type	_ZNK3MPI4Comm6IrsendEPKviRKNS_8DatatypeEii,@function
_ZNK3MPI4Comm6IrsendEPKviRKNS_8DatatypeEii: # @_ZNK3MPI4Comm6IrsendEPKviRKNS_8DatatypeEii
	.cfi_startproc
# %bb.0:
	pushq	%rbp
	.cfi_def_cfa_offset 16
	.cfi_offset %rbp, -16
	movq	%rsp, %rbp
	.cfi_def_cfa_register %rbp
	subq	$112, %rsp
	movq	%rdi, -72(%rbp)                 # 8-byte Spill
	movq	%rdi, %rax
	movq	%rax, -64(%rbp)                 # 8-byte Spill
	movl	16(%rbp), %eax
	movq	%rdi, -8(%rbp)
	movq	%rsi, -16(%rbp)
	movq	%rdx, -24(%rbp)
	movl	%ecx, -28(%rbp)
	movq	%r8, -40(%rbp)
	movl	%r9d, -44(%rbp)
	movq	-16(%rbp), %rax
	movq	%rax, -80(%rbp)                 # 8-byte Spill
	movq	-24(%rbp), %rax
	movq	%rax, -96(%rbp)                 # 8-byte Spill
	movl	-28(%rbp), %eax
	movl	%eax, -84(%rbp)                 # 4-byte Spill
	movq	-40(%rbp), %rdi
	callq	_ZNK3MPI8DatatypecvP15ompi_datatype_tEv
	movq	-96(%rbp), %rdi                 # 8-byte Reload
	movl	-84(%rbp), %esi                 # 4-byte Reload
	movq	%rax, %rdx
	movq	-80(%rbp), %rax                 # 8-byte Reload
	movl	-44(%rbp), %ecx
	movl	16(%rbp), %r8d
	movq	8(%rax), %r9
	leaq	-56(%rbp), %rax
	movq	%rax, (%rsp)
	callq	MPI_Irsend@PLT
	movq	-72(%rbp), %rdi                 # 8-byte Reload
	movq	-56(%rbp), %rsi
	callq	_ZN3MPI7RequestC2EP14ompi_request_t
	movq	-64(%rbp), %rax                 # 8-byte Reload
	addq	$112, %rsp
	popq	%rbp
	.cfi_def_cfa %rsp, 8
	retq
.Lfunc_end104:
	.size	_ZNK3MPI4Comm6IrsendEPKviRKNS_8DatatypeEii, .Lfunc_end104-_ZNK3MPI4Comm6IrsendEPKviRKNS_8DatatypeEii
	.cfi_endproc
                                        # -- End function
	.section	.text._ZNK3MPI4Comm5IrecvEPviRKNS_8DatatypeEii,"axG",@progbits,_ZNK3MPI4Comm5IrecvEPviRKNS_8DatatypeEii,comdat
	.weak	_ZNK3MPI4Comm5IrecvEPviRKNS_8DatatypeEii # -- Begin function _ZNK3MPI4Comm5IrecvEPviRKNS_8DatatypeEii
	.p2align	4, 0x90
	.type	_ZNK3MPI4Comm5IrecvEPviRKNS_8DatatypeEii,@function
_ZNK3MPI4Comm5IrecvEPviRKNS_8DatatypeEii: # @_ZNK3MPI4Comm5IrecvEPviRKNS_8DatatypeEii
	.cfi_startproc
# %bb.0:
	pushq	%rbp
	.cfi_def_cfa_offset 16
	.cfi_offset %rbp, -16
	movq	%rsp, %rbp
	.cfi_def_cfa_register %rbp
	subq	$112, %rsp
	movq	%rdi, -72(%rbp)                 # 8-byte Spill
	movq	%rdi, %rax
	movq	%rax, -64(%rbp)                 # 8-byte Spill
	movl	16(%rbp), %eax
	movq	%rdi, -8(%rbp)
	movq	%rsi, -16(%rbp)
	movq	%rdx, -24(%rbp)
	movl	%ecx, -28(%rbp)
	movq	%r8, -40(%rbp)
	movl	%r9d, -44(%rbp)
	movq	-16(%rbp), %rax
	movq	%rax, -80(%rbp)                 # 8-byte Spill
	movq	-24(%rbp), %rax
	movq	%rax, -96(%rbp)                 # 8-byte Spill
	movl	-28(%rbp), %eax
	movl	%eax, -84(%rbp)                 # 4-byte Spill
	movq	-40(%rbp), %rdi
	callq	_ZNK3MPI8DatatypecvP15ompi_datatype_tEv
	movq	-96(%rbp), %rdi                 # 8-byte Reload
	movl	-84(%rbp), %esi                 # 4-byte Reload
	movq	%rax, %rdx
	movq	-80(%rbp), %rax                 # 8-byte Reload
	movl	-44(%rbp), %ecx
	movl	16(%rbp), %r8d
	movq	8(%rax), %r9
	leaq	-56(%rbp), %rax
	movq	%rax, (%rsp)
	callq	MPI_Irecv@PLT
	movq	-72(%rbp), %rdi                 # 8-byte Reload
	movq	-56(%rbp), %rsi
	callq	_ZN3MPI7RequestC2EP14ompi_request_t
	movq	-64(%rbp), %rax                 # 8-byte Reload
	addq	$112, %rsp
	popq	%rbp
	.cfi_def_cfa %rsp, 8
	retq
.Lfunc_end105:
	.size	_ZNK3MPI4Comm5IrecvEPviRKNS_8DatatypeEii, .Lfunc_end105-_ZNK3MPI4Comm5IrecvEPviRKNS_8DatatypeEii
	.cfi_endproc
                                        # -- End function
	.section	.text._ZNK3MPI4Comm6IprobeEiiRNS_6StatusE,"axG",@progbits,_ZNK3MPI4Comm6IprobeEiiRNS_6StatusE,comdat
	.weak	_ZNK3MPI4Comm6IprobeEiiRNS_6StatusE # -- Begin function _ZNK3MPI4Comm6IprobeEiiRNS_6StatusE
	.p2align	4, 0x90
	.type	_ZNK3MPI4Comm6IprobeEiiRNS_6StatusE,@function
_ZNK3MPI4Comm6IprobeEiiRNS_6StatusE:    # @_ZNK3MPI4Comm6IprobeEiiRNS_6StatusE
	.cfi_startproc
# %bb.0:
	pushq	%rbp
	.cfi_def_cfa_offset 16
	.cfi_offset %rbp, -16
	movq	%rsp, %rbp
	.cfi_def_cfa_register %rbp
	subq	$32, %rsp
	movq	%rdi, -8(%rbp)
	movl	%esi, -12(%rbp)
	movl	%edx, -16(%rbp)
	movq	%rcx, -24(%rbp)
	movq	-8(%rbp), %rax
	movl	-12(%rbp), %edi
	movl	-16(%rbp), %esi
	movq	8(%rax), %rdx
	movq	-24(%rbp), %r8
	addq	$8, %r8
	leaq	-28(%rbp), %rcx
	callq	MPI_Iprobe@PLT
	cmpl	$0, -28(%rbp)
	setne	%al
	andb	$1, %al
	movzbl	%al, %eax
	addq	$32, %rsp
	popq	%rbp
	.cfi_def_cfa %rsp, 8
	retq
.Lfunc_end106:
	.size	_ZNK3MPI4Comm6IprobeEiiRNS_6StatusE, .Lfunc_end106-_ZNK3MPI4Comm6IprobeEiiRNS_6StatusE
	.cfi_endproc
                                        # -- End function
	.section	.text._ZNK3MPI4Comm6IprobeEii,"axG",@progbits,_ZNK3MPI4Comm6IprobeEii,comdat
	.weak	_ZNK3MPI4Comm6IprobeEii         # -- Begin function _ZNK3MPI4Comm6IprobeEii
	.p2align	4, 0x90
	.type	_ZNK3MPI4Comm6IprobeEii,@function
_ZNK3MPI4Comm6IprobeEii:                # @_ZNK3MPI4Comm6IprobeEii
	.cfi_startproc
# %bb.0:
	pushq	%rbp
	.cfi_def_cfa_offset 16
	.cfi_offset %rbp, -16
	movq	%rsp, %rbp
	.cfi_def_cfa_register %rbp
	subq	$32, %rsp
	movq	%rdi, -8(%rbp)
	movl	%esi, -12(%rbp)
	movl	%edx, -16(%rbp)
	movq	-8(%rbp), %rax
	movl	-12(%rbp), %edi
	movl	-16(%rbp), %esi
	movq	8(%rax), %rdx
	leaq	-20(%rbp), %rcx
	xorl	%eax, %eax
	movl	%eax, %r8d
	callq	MPI_Iprobe@PLT
	cmpl	$0, -20(%rbp)
	setne	%al
	andb	$1, %al
	movzbl	%al, %eax
	addq	$32, %rsp
	popq	%rbp
	.cfi_def_cfa %rsp, 8
	retq
.Lfunc_end107:
	.size	_ZNK3MPI4Comm6IprobeEii, .Lfunc_end107-_ZNK3MPI4Comm6IprobeEii
	.cfi_endproc
                                        # -- End function
	.section	.text._ZNK3MPI4Comm5ProbeEiiRNS_6StatusE,"axG",@progbits,_ZNK3MPI4Comm5ProbeEiiRNS_6StatusE,comdat
	.weak	_ZNK3MPI4Comm5ProbeEiiRNS_6StatusE # -- Begin function _ZNK3MPI4Comm5ProbeEiiRNS_6StatusE
	.p2align	4, 0x90
	.type	_ZNK3MPI4Comm5ProbeEiiRNS_6StatusE,@function
_ZNK3MPI4Comm5ProbeEiiRNS_6StatusE:     # @_ZNK3MPI4Comm5ProbeEiiRNS_6StatusE
	.cfi_startproc
# %bb.0:
	pushq	%rbp
	.cfi_def_cfa_offset 16
	.cfi_offset %rbp, -16
	movq	%rsp, %rbp
	.cfi_def_cfa_register %rbp
	subq	$32, %rsp
	movq	%rdi, -8(%rbp)
	movl	%esi, -12(%rbp)
	movl	%edx, -16(%rbp)
	movq	%rcx, -24(%rbp)
	movq	-8(%rbp), %rax
	movl	-12(%rbp), %edi
	movl	-16(%rbp), %esi
	movq	8(%rax), %rdx
	movq	-24(%rbp), %rcx
	addq	$8, %rcx
	callq	MPI_Probe@PLT
	addq	$32, %rsp
	popq	%rbp
	.cfi_def_cfa %rsp, 8
	retq
.Lfunc_end108:
	.size	_ZNK3MPI4Comm5ProbeEiiRNS_6StatusE, .Lfunc_end108-_ZNK3MPI4Comm5ProbeEiiRNS_6StatusE
	.cfi_endproc
                                        # -- End function
	.section	.text._ZNK3MPI4Comm5ProbeEii,"axG",@progbits,_ZNK3MPI4Comm5ProbeEii,comdat
	.weak	_ZNK3MPI4Comm5ProbeEii          # -- Begin function _ZNK3MPI4Comm5ProbeEii
	.p2align	4, 0x90
	.type	_ZNK3MPI4Comm5ProbeEii,@function
_ZNK3MPI4Comm5ProbeEii:                 # @_ZNK3MPI4Comm5ProbeEii
	.cfi_startproc
# %bb.0:
	pushq	%rbp
	.cfi_def_cfa_offset 16
	.cfi_offset %rbp, -16
	movq	%rsp, %rbp
	.cfi_def_cfa_register %rbp
	subq	$16, %rsp
	movq	%rdi, -8(%rbp)
	movl	%esi, -12(%rbp)
	movl	%edx, -16(%rbp)
	movq	-8(%rbp), %rax
	movl	-12(%rbp), %edi
	movl	-16(%rbp), %esi
	movq	8(%rax), %rdx
	xorl	%eax, %eax
	movl	%eax, %ecx
	callq	MPI_Probe@PLT
	addq	$16, %rsp
	popq	%rbp
	.cfi_def_cfa %rsp, 8
	retq
.Lfunc_end109:
	.size	_ZNK3MPI4Comm5ProbeEii, .Lfunc_end109-_ZNK3MPI4Comm5ProbeEii
	.cfi_endproc
                                        # -- End function
	.section	.text._ZNK3MPI4Comm9Send_initEPKviRKNS_8DatatypeEii,"axG",@progbits,_ZNK3MPI4Comm9Send_initEPKviRKNS_8DatatypeEii,comdat
	.weak	_ZNK3MPI4Comm9Send_initEPKviRKNS_8DatatypeEii # -- Begin function _ZNK3MPI4Comm9Send_initEPKviRKNS_8DatatypeEii
	.p2align	4, 0x90
	.type	_ZNK3MPI4Comm9Send_initEPKviRKNS_8DatatypeEii,@function
_ZNK3MPI4Comm9Send_initEPKviRKNS_8DatatypeEii: # @_ZNK3MPI4Comm9Send_initEPKviRKNS_8DatatypeEii
	.cfi_startproc
# %bb.0:
	pushq	%rbp
	.cfi_def_cfa_offset 16
	.cfi_offset %rbp, -16
	movq	%rsp, %rbp
	.cfi_def_cfa_register %rbp
	subq	$112, %rsp
	movq	%rdi, -72(%rbp)                 # 8-byte Spill
	movq	%rdi, %rax
	movq	%rax, -64(%rbp)                 # 8-byte Spill
	movl	16(%rbp), %eax
	movq	%rdi, -8(%rbp)
	movq	%rsi, -16(%rbp)
	movq	%rdx, -24(%rbp)
	movl	%ecx, -28(%rbp)
	movq	%r8, -40(%rbp)
	movl	%r9d, -44(%rbp)
	movq	-16(%rbp), %rax
	movq	%rax, -80(%rbp)                 # 8-byte Spill
	movq	-24(%rbp), %rax
	movq	%rax, -96(%rbp)                 # 8-byte Spill
	movl	-28(%rbp), %eax
	movl	%eax, -84(%rbp)                 # 4-byte Spill
	movq	-40(%rbp), %rdi
	callq	_ZNK3MPI8DatatypecvP15ompi_datatype_tEv
	movq	-96(%rbp), %rdi                 # 8-byte Reload
	movl	-84(%rbp), %esi                 # 4-byte Reload
	movq	%rax, %rdx
	movq	-80(%rbp), %rax                 # 8-byte Reload
	movl	-44(%rbp), %ecx
	movl	16(%rbp), %r8d
	movq	8(%rax), %r9
	leaq	-56(%rbp), %rax
	movq	%rax, (%rsp)
	callq	MPI_Send_init@PLT
	movq	-72(%rbp), %rdi                 # 8-byte Reload
	leaq	-56(%rbp), %rsi
	callq	_ZN3MPI8PrequestC2ERKP14ompi_request_t
	movq	-64(%rbp), %rax                 # 8-byte Reload
	addq	$112, %rsp
	popq	%rbp
	.cfi_def_cfa %rsp, 8
	retq
.Lfunc_end110:
	.size	_ZNK3MPI4Comm9Send_initEPKviRKNS_8DatatypeEii, .Lfunc_end110-_ZNK3MPI4Comm9Send_initEPKviRKNS_8DatatypeEii
	.cfi_endproc
                                        # -- End function
	.section	.text._ZNK3MPI4Comm10Bsend_initEPKviRKNS_8DatatypeEii,"axG",@progbits,_ZNK3MPI4Comm10Bsend_initEPKviRKNS_8DatatypeEii,comdat
	.weak	_ZNK3MPI4Comm10Bsend_initEPKviRKNS_8DatatypeEii # -- Begin function _ZNK3MPI4Comm10Bsend_initEPKviRKNS_8DatatypeEii
	.p2align	4, 0x90
	.type	_ZNK3MPI4Comm10Bsend_initEPKviRKNS_8DatatypeEii,@function
_ZNK3MPI4Comm10Bsend_initEPKviRKNS_8DatatypeEii: # @_ZNK3MPI4Comm10Bsend_initEPKviRKNS_8DatatypeEii
	.cfi_startproc
# %bb.0:
	pushq	%rbp
	.cfi_def_cfa_offset 16
	.cfi_offset %rbp, -16
	movq	%rsp, %rbp
	.cfi_def_cfa_register %rbp
	subq	$112, %rsp
	movq	%rdi, -72(%rbp)                 # 8-byte Spill
	movq	%rdi, %rax
	movq	%rax, -64(%rbp)                 # 8-byte Spill
	movl	16(%rbp), %eax
	movq	%rdi, -8(%rbp)
	movq	%rsi, -16(%rbp)
	movq	%rdx, -24(%rbp)
	movl	%ecx, -28(%rbp)
	movq	%r8, -40(%rbp)
	movl	%r9d, -44(%rbp)
	movq	-16(%rbp), %rax
	movq	%rax, -80(%rbp)                 # 8-byte Spill
	movq	-24(%rbp), %rax
	movq	%rax, -96(%rbp)                 # 8-byte Spill
	movl	-28(%rbp), %eax
	movl	%eax, -84(%rbp)                 # 4-byte Spill
	movq	-40(%rbp), %rdi
	callq	_ZNK3MPI8DatatypecvP15ompi_datatype_tEv
	movq	-96(%rbp), %rdi                 # 8-byte Reload
	movl	-84(%rbp), %esi                 # 4-byte Reload
	movq	%rax, %rdx
	movq	-80(%rbp), %rax                 # 8-byte Reload
	movl	-44(%rbp), %ecx
	movl	16(%rbp), %r8d
	movq	8(%rax), %r9
	leaq	-56(%rbp), %rax
	movq	%rax, (%rsp)
	callq	MPI_Bsend_init@PLT
	movq	-72(%rbp), %rdi                 # 8-byte Reload
	leaq	-56(%rbp), %rsi
	callq	_ZN3MPI8PrequestC2ERKP14ompi_request_t
	movq	-64(%rbp), %rax                 # 8-byte Reload
	addq	$112, %rsp
	popq	%rbp
	.cfi_def_cfa %rsp, 8
	retq
.Lfunc_end111:
	.size	_ZNK3MPI4Comm10Bsend_initEPKviRKNS_8DatatypeEii, .Lfunc_end111-_ZNK3MPI4Comm10Bsend_initEPKviRKNS_8DatatypeEii
	.cfi_endproc
                                        # -- End function
	.section	.text._ZNK3MPI4Comm10Ssend_initEPKviRKNS_8DatatypeEii,"axG",@progbits,_ZNK3MPI4Comm10Ssend_initEPKviRKNS_8DatatypeEii,comdat
	.weak	_ZNK3MPI4Comm10Ssend_initEPKviRKNS_8DatatypeEii # -- Begin function _ZNK3MPI4Comm10Ssend_initEPKviRKNS_8DatatypeEii
	.p2align	4, 0x90
	.type	_ZNK3MPI4Comm10Ssend_initEPKviRKNS_8DatatypeEii,@function
_ZNK3MPI4Comm10Ssend_initEPKviRKNS_8DatatypeEii: # @_ZNK3MPI4Comm10Ssend_initEPKviRKNS_8DatatypeEii
	.cfi_startproc
# %bb.0:
	pushq	%rbp
	.cfi_def_cfa_offset 16
	.cfi_offset %rbp, -16
	movq	%rsp, %rbp
	.cfi_def_cfa_register %rbp
	subq	$112, %rsp
	movq	%rdi, -72(%rbp)                 # 8-byte Spill
	movq	%rdi, %rax
	movq	%rax, -64(%rbp)                 # 8-byte Spill
	movl	16(%rbp), %eax
	movq	%rdi, -8(%rbp)
	movq	%rsi, -16(%rbp)
	movq	%rdx, -24(%rbp)
	movl	%ecx, -28(%rbp)
	movq	%r8, -40(%rbp)
	movl	%r9d, -44(%rbp)
	movq	-16(%rbp), %rax
	movq	%rax, -80(%rbp)                 # 8-byte Spill
	movq	-24(%rbp), %rax
	movq	%rax, -96(%rbp)                 # 8-byte Spill
	movl	-28(%rbp), %eax
	movl	%eax, -84(%rbp)                 # 4-byte Spill
	movq	-40(%rbp), %rdi
	callq	_ZNK3MPI8DatatypecvP15ompi_datatype_tEv
	movq	-96(%rbp), %rdi                 # 8-byte Reload
	movl	-84(%rbp), %esi                 # 4-byte Reload
	movq	%rax, %rdx
	movq	-80(%rbp), %rax                 # 8-byte Reload
	movl	-44(%rbp), %ecx
	movl	16(%rbp), %r8d
	movq	8(%rax), %r9
	leaq	-56(%rbp), %rax
	movq	%rax, (%rsp)
	callq	MPI_Ssend_init@PLT
	movq	-72(%rbp), %rdi                 # 8-byte Reload
	leaq	-56(%rbp), %rsi
	callq	_ZN3MPI8PrequestC2ERKP14ompi_request_t
	movq	-64(%rbp), %rax                 # 8-byte Reload
	addq	$112, %rsp
	popq	%rbp
	.cfi_def_cfa %rsp, 8
	retq
.Lfunc_end112:
	.size	_ZNK3MPI4Comm10Ssend_initEPKviRKNS_8DatatypeEii, .Lfunc_end112-_ZNK3MPI4Comm10Ssend_initEPKviRKNS_8DatatypeEii
	.cfi_endproc
                                        # -- End function
	.section	.text._ZNK3MPI4Comm10Rsend_initEPKviRKNS_8DatatypeEii,"axG",@progbits,_ZNK3MPI4Comm10Rsend_initEPKviRKNS_8DatatypeEii,comdat
	.weak	_ZNK3MPI4Comm10Rsend_initEPKviRKNS_8DatatypeEii # -- Begin function _ZNK3MPI4Comm10Rsend_initEPKviRKNS_8DatatypeEii
	.p2align	4, 0x90
	.type	_ZNK3MPI4Comm10Rsend_initEPKviRKNS_8DatatypeEii,@function
_ZNK3MPI4Comm10Rsend_initEPKviRKNS_8DatatypeEii: # @_ZNK3MPI4Comm10Rsend_initEPKviRKNS_8DatatypeEii
	.cfi_startproc
# %bb.0:
	pushq	%rbp
	.cfi_def_cfa_offset 16
	.cfi_offset %rbp, -16
	movq	%rsp, %rbp
	.cfi_def_cfa_register %rbp
	subq	$112, %rsp
	movq	%rdi, -72(%rbp)                 # 8-byte Spill
	movq	%rdi, %rax
	movq	%rax, -64(%rbp)                 # 8-byte Spill
	movl	16(%rbp), %eax
	movq	%rdi, -8(%rbp)
	movq	%rsi, -16(%rbp)
	movq	%rdx, -24(%rbp)
	movl	%ecx, -28(%rbp)
	movq	%r8, -40(%rbp)
	movl	%r9d, -44(%rbp)
	movq	-16(%rbp), %rax
	movq	%rax, -80(%rbp)                 # 8-byte Spill
	movq	-24(%rbp), %rax
	movq	%rax, -96(%rbp)                 # 8-byte Spill
	movl	-28(%rbp), %eax
	movl	%eax, -84(%rbp)                 # 4-byte Spill
	movq	-40(%rbp), %rdi
	callq	_ZNK3MPI8DatatypecvP15ompi_datatype_tEv
	movq	-96(%rbp), %rdi                 # 8-byte Reload
	movl	-84(%rbp), %esi                 # 4-byte Reload
	movq	%rax, %rdx
	movq	-80(%rbp), %rax                 # 8-byte Reload
	movl	-44(%rbp), %ecx
	movl	16(%rbp), %r8d
	movq	8(%rax), %r9
	leaq	-56(%rbp), %rax
	movq	%rax, (%rsp)
	callq	MPI_Rsend_init@PLT
	movq	-72(%rbp), %rdi                 # 8-byte Reload
	leaq	-56(%rbp), %rsi
	callq	_ZN3MPI8PrequestC2ERKP14ompi_request_t
	movq	-64(%rbp), %rax                 # 8-byte Reload
	addq	$112, %rsp
	popq	%rbp
	.cfi_def_cfa %rsp, 8
	retq
.Lfunc_end113:
	.size	_ZNK3MPI4Comm10Rsend_initEPKviRKNS_8DatatypeEii, .Lfunc_end113-_ZNK3MPI4Comm10Rsend_initEPKviRKNS_8DatatypeEii
	.cfi_endproc
                                        # -- End function
	.section	.text._ZNK3MPI4Comm9Recv_initEPviRKNS_8DatatypeEii,"axG",@progbits,_ZNK3MPI4Comm9Recv_initEPviRKNS_8DatatypeEii,comdat
	.weak	_ZNK3MPI4Comm9Recv_initEPviRKNS_8DatatypeEii # -- Begin function _ZNK3MPI4Comm9Recv_initEPviRKNS_8DatatypeEii
	.p2align	4, 0x90
	.type	_ZNK3MPI4Comm9Recv_initEPviRKNS_8DatatypeEii,@function
_ZNK3MPI4Comm9Recv_initEPviRKNS_8DatatypeEii: # @_ZNK3MPI4Comm9Recv_initEPviRKNS_8DatatypeEii
	.cfi_startproc
# %bb.0:
	pushq	%rbp
	.cfi_def_cfa_offset 16
	.cfi_offset %rbp, -16
	movq	%rsp, %rbp
	.cfi_def_cfa_register %rbp
	subq	$112, %rsp
	movq	%rdi, -72(%rbp)                 # 8-byte Spill
	movq	%rdi, %rax
	movq	%rax, -64(%rbp)                 # 8-byte Spill
	movl	16(%rbp), %eax
	movq	%rdi, -8(%rbp)
	movq	%rsi, -16(%rbp)
	movq	%rdx, -24(%rbp)
	movl	%ecx, -28(%rbp)
	movq	%r8, -40(%rbp)
	movl	%r9d, -44(%rbp)
	movq	-16(%rbp), %rax
	movq	%rax, -80(%rbp)                 # 8-byte Spill
	movq	-24(%rbp), %rax
	movq	%rax, -96(%rbp)                 # 8-byte Spill
	movl	-28(%rbp), %eax
	movl	%eax, -84(%rbp)                 # 4-byte Spill
	movq	-40(%rbp), %rdi
	callq	_ZNK3MPI8DatatypecvP15ompi_datatype_tEv
	movq	-96(%rbp), %rdi                 # 8-byte Reload
	movl	-84(%rbp), %esi                 # 4-byte Reload
	movq	%rax, %rdx
	movq	-80(%rbp), %rax                 # 8-byte Reload
	movl	-44(%rbp), %ecx
	movl	16(%rbp), %r8d
	movq	8(%rax), %r9
	leaq	-56(%rbp), %rax
	movq	%rax, (%rsp)
	callq	MPI_Recv_init@PLT
	movq	-72(%rbp), %rdi                 # 8-byte Reload
	leaq	-56(%rbp), %rsi
	callq	_ZN3MPI8PrequestC2ERKP14ompi_request_t
	movq	-64(%rbp), %rax                 # 8-byte Reload
	addq	$112, %rsp
	popq	%rbp
	.cfi_def_cfa %rsp, 8
	retq
.Lfunc_end114:
	.size	_ZNK3MPI4Comm9Recv_initEPviRKNS_8DatatypeEii, .Lfunc_end114-_ZNK3MPI4Comm9Recv_initEPviRKNS_8DatatypeEii
	.cfi_endproc
                                        # -- End function
	.section	.text._ZNK3MPI4Comm8SendrecvEPKviRKNS_8DatatypeEiiPviS5_iiRNS_6StatusE,"axG",@progbits,_ZNK3MPI4Comm8SendrecvEPKviRKNS_8DatatypeEiiPviS5_iiRNS_6StatusE,comdat
	.weak	_ZNK3MPI4Comm8SendrecvEPKviRKNS_8DatatypeEiiPviS5_iiRNS_6StatusE # -- Begin function _ZNK3MPI4Comm8SendrecvEPKviRKNS_8DatatypeEiiPviS5_iiRNS_6StatusE
	.p2align	4, 0x90
	.type	_ZNK3MPI4Comm8SendrecvEPKviRKNS_8DatatypeEiiPviS5_iiRNS_6StatusE,@function
_ZNK3MPI4Comm8SendrecvEPKviRKNS_8DatatypeEiiPviS5_iiRNS_6StatusE: # @_ZNK3MPI4Comm8SendrecvEPKviRKNS_8DatatypeEiiPviS5_iiRNS_6StatusE
	.cfi_startproc
# %bb.0:
	pushq	%rbp
	.cfi_def_cfa_offset 16
	.cfi_offset %rbp, -16
	movq	%rsp, %rbp
	.cfi_def_cfa_register %rbp
	pushq	%r15
	pushq	%r14
	pushq	%rbx
	subq	$136, %rsp
	.cfi_offset %rbx, -40
	.cfi_offset %r14, -32
	.cfi_offset %r15, -24
	movq	56(%rbp), %rax
	movl	48(%rbp), %eax
	movl	40(%rbp), %eax
	movq	32(%rbp), %rax
	movl	24(%rbp), %eax
	movq	16(%rbp), %rax
	movq	%rdi, -32(%rbp)
	movq	%rsi, -40(%rbp)
	movl	%edx, -44(%rbp)
	movq	%rcx, -56(%rbp)
	movl	%r8d, -60(%rbp)
	movl	%r9d, -64(%rbp)
	movq	-32(%rbp), %rax
	movq	%rax, -72(%rbp)                 # 8-byte Spill
	movq	-40(%rbp), %rax
	movq	%rax, -112(%rbp)                # 8-byte Spill
	movl	-44(%rbp), %eax
	movl	%eax, -100(%rbp)                # 4-byte Spill
	movq	-56(%rbp), %rdi
	callq	_ZNK3MPI8DatatypecvP15ompi_datatype_tEv
	movq	%rax, -96(%rbp)                 # 8-byte Spill
	movl	-60(%rbp), %eax
	movl	%eax, -88(%rbp)                 # 4-byte Spill
	movl	-64(%rbp), %eax
	movl	%eax, -84(%rbp)                 # 4-byte Spill
	movq	16(%rbp), %rax
	movq	%rax, -80(%rbp)                 # 8-byte Spill
	movl	24(%rbp), %r15d
	movq	32(%rbp), %rdi
	callq	_ZNK3MPI8DatatypecvP15ompi_datatype_tEv
	movq	-112(%rbp), %rdi                # 8-byte Reload
	movl	-100(%rbp), %esi                # 4-byte Reload
	movq	-96(%rbp), %rdx                 # 8-byte Reload
	movl	-88(%rbp), %ecx                 # 4-byte Reload
	movl	-84(%rbp), %r8d                 # 4-byte Reload
	movq	-80(%rbp), %r9                  # 8-byte Reload
	movq	%rax, %r14
	movq	-72(%rbp), %rax                 # 8-byte Reload
	movl	40(%rbp), %ebx
	movl	48(%rbp), %r11d
	movq	8(%rax), %r10
	movq	56(%rbp), %rax
	addq	$8, %rax
	movl	%r15d, (%rsp)
	movq	%r14, 8(%rsp)
	movl	%ebx, 16(%rsp)
	movl	%r11d, 24(%rsp)
	movq	%r10, 32(%rsp)
	movq	%rax, 40(%rsp)
	callq	MPI_Sendrecv@PLT
	addq	$136, %rsp
	popq	%rbx
	popq	%r14
	popq	%r15
	popq	%rbp
	.cfi_def_cfa %rsp, 8
	retq
.Lfunc_end115:
	.size	_ZNK3MPI4Comm8SendrecvEPKviRKNS_8DatatypeEiiPviS5_iiRNS_6StatusE, .Lfunc_end115-_ZNK3MPI4Comm8SendrecvEPKviRKNS_8DatatypeEiiPviS5_iiRNS_6StatusE
	.cfi_endproc
                                        # -- End function
	.section	.text._ZNK3MPI4Comm8SendrecvEPKviRKNS_8DatatypeEiiPviS5_ii,"axG",@progbits,_ZNK3MPI4Comm8SendrecvEPKviRKNS_8DatatypeEiiPviS5_ii,comdat
	.weak	_ZNK3MPI4Comm8SendrecvEPKviRKNS_8DatatypeEiiPviS5_ii # -- Begin function _ZNK3MPI4Comm8SendrecvEPKviRKNS_8DatatypeEiiPviS5_ii
	.p2align	4, 0x90
	.type	_ZNK3MPI4Comm8SendrecvEPKviRKNS_8DatatypeEiiPviS5_ii,@function
_ZNK3MPI4Comm8SendrecvEPKviRKNS_8DatatypeEiiPviS5_ii: # @_ZNK3MPI4Comm8SendrecvEPKviRKNS_8DatatypeEiiPviS5_ii
	.cfi_startproc
# %bb.0:
	pushq	%rbp
	.cfi_def_cfa_offset 16
	.cfi_offset %rbp, -16
	movq	%rsp, %rbp
	.cfi_def_cfa_register %rbp
	pushq	%r15
	pushq	%r14
	pushq	%rbx
	subq	$136, %rsp
	.cfi_offset %rbx, -40
	.cfi_offset %r14, -32
	.cfi_offset %r15, -24
	movl	48(%rbp), %eax
	movl	40(%rbp), %eax
	movq	32(%rbp), %rax
	movl	24(%rbp), %eax
	movq	16(%rbp), %rax
	movq	%rdi, -32(%rbp)
	movq	%rsi, -40(%rbp)
	movl	%edx, -44(%rbp)
	movq	%rcx, -56(%rbp)
	movl	%r8d, -60(%rbp)
	movl	%r9d, -64(%rbp)
	movq	-32(%rbp), %rax
	movq	%rax, -72(%rbp)                 # 8-byte Spill
	movq	-40(%rbp), %rax
	movq	%rax, -112(%rbp)                # 8-byte Spill
	movl	-44(%rbp), %eax
	movl	%eax, -100(%rbp)                # 4-byte Spill
	movq	-56(%rbp), %rdi
	callq	_ZNK3MPI8DatatypecvP15ompi_datatype_tEv
	movq	%rax, -96(%rbp)                 # 8-byte Spill
	movl	-60(%rbp), %eax
	movl	%eax, -88(%rbp)                 # 4-byte Spill
	movl	-64(%rbp), %eax
	movl	%eax, -84(%rbp)                 # 4-byte Spill
	movq	16(%rbp), %rax
	movq	%rax, -80(%rbp)                 # 8-byte Spill
	movl	24(%rbp), %r14d
	movq	32(%rbp), %rdi
	callq	_ZNK3MPI8DatatypecvP15ompi_datatype_tEv
	movq	-112(%rbp), %rdi                # 8-byte Reload
	movl	-100(%rbp), %esi                # 4-byte Reload
	movq	-96(%rbp), %rdx                 # 8-byte Reload
	movl	-88(%rbp), %ecx                 # 4-byte Reload
	movl	-84(%rbp), %r8d                 # 4-byte Reload
	movq	-80(%rbp), %r9                  # 8-byte Reload
	movq	%rax, %rbx
	movq	-72(%rbp), %rax                 # 8-byte Reload
	movl	40(%rbp), %r11d
	movl	48(%rbp), %r10d
	movq	8(%rax), %rax
	xorl	%r15d, %r15d
                                        # kill: def $r15 killed $r15d
	movl	%r14d, (%rsp)
	movq	%rbx, 8(%rsp)
	movl	%r11d, 16(%rsp)
	movl	%r10d, 24(%rsp)
	movq	%rax, 32(%rsp)
	movq	$0, 40(%rsp)
	callq	MPI_Sendrecv@PLT
	addq	$136, %rsp
	popq	%rbx
	popq	%r14
	popq	%r15
	popq	%rbp
	.cfi_def_cfa %rsp, 8
	retq
.Lfunc_end116:
	.size	_ZNK3MPI4Comm8SendrecvEPKviRKNS_8DatatypeEiiPviS5_ii, .Lfunc_end116-_ZNK3MPI4Comm8SendrecvEPKviRKNS_8DatatypeEiiPviS5_ii
	.cfi_endproc
                                        # -- End function
	.section	.text._ZNK3MPI4Comm16Sendrecv_replaceEPviRKNS_8DatatypeEiiiiRNS_6StatusE,"axG",@progbits,_ZNK3MPI4Comm16Sendrecv_replaceEPviRKNS_8DatatypeEiiiiRNS_6StatusE,comdat
	.weak	_ZNK3MPI4Comm16Sendrecv_replaceEPviRKNS_8DatatypeEiiiiRNS_6StatusE # -- Begin function _ZNK3MPI4Comm16Sendrecv_replaceEPviRKNS_8DatatypeEiiiiRNS_6StatusE
	.p2align	4, 0x90
	.type	_ZNK3MPI4Comm16Sendrecv_replaceEPviRKNS_8DatatypeEiiiiRNS_6StatusE,@function
_ZNK3MPI4Comm16Sendrecv_replaceEPviRKNS_8DatatypeEiiiiRNS_6StatusE: # @_ZNK3MPI4Comm16Sendrecv_replaceEPviRKNS_8DatatypeEiiiiRNS_6StatusE
	.cfi_startproc
# %bb.0:
	pushq	%rbp
	.cfi_def_cfa_offset 16
	.cfi_offset %rbp, -16
	movq	%rsp, %rbp
	.cfi_def_cfa_register %rbp
	subq	$96, %rsp
	movq	32(%rbp), %rax
	movl	24(%rbp), %eax
	movl	16(%rbp), %eax
	movq	%rdi, -8(%rbp)
	movq	%rsi, -16(%rbp)
	movl	%edx, -20(%rbp)
	movq	%rcx, -32(%rbp)
	movl	%r8d, -36(%rbp)
	movl	%r9d, -40(%rbp)
	movq	-8(%rbp), %rax
	movq	%rax, -48(%rbp)                 # 8-byte Spill
	movq	-16(%rbp), %rax
	movq	%rax, -64(%rbp)                 # 8-byte Spill
	movl	-20(%rbp), %eax
	movl	%eax, -52(%rbp)                 # 4-byte Spill
	movq	-32(%rbp), %rdi
	callq	_ZNK3MPI8DatatypecvP15ompi_datatype_tEv
	movq	-64(%rbp), %rdi                 # 8-byte Reload
	movl	-52(%rbp), %esi                 # 4-byte Reload
	movq	%rax, %rdx
	movq	-48(%rbp), %rax                 # 8-byte Reload
	movl	-36(%rbp), %ecx
	movl	-40(%rbp), %r8d
	movl	16(%rbp), %r9d
	movl	24(%rbp), %r11d
	movq	8(%rax), %r10
	movq	32(%rbp), %rax
	addq	$8, %rax
	movl	%r11d, (%rsp)
	movq	%r10, 8(%rsp)
	movq	%rax, 16(%rsp)
	callq	MPI_Sendrecv_replace@PLT
	addq	$96, %rsp
	popq	%rbp
	.cfi_def_cfa %rsp, 8
	retq
.Lfunc_end117:
	.size	_ZNK3MPI4Comm16Sendrecv_replaceEPviRKNS_8DatatypeEiiiiRNS_6StatusE, .Lfunc_end117-_ZNK3MPI4Comm16Sendrecv_replaceEPviRKNS_8DatatypeEiiiiRNS_6StatusE
	.cfi_endproc
                                        # -- End function
	.section	.text._ZNK3MPI4Comm16Sendrecv_replaceEPviRKNS_8DatatypeEiiii,"axG",@progbits,_ZNK3MPI4Comm16Sendrecv_replaceEPviRKNS_8DatatypeEiiii,comdat
	.weak	_ZNK3MPI4Comm16Sendrecv_replaceEPviRKNS_8DatatypeEiiii # -- Begin function _ZNK3MPI4Comm16Sendrecv_replaceEPviRKNS_8DatatypeEiiii
	.p2align	4, 0x90
	.type	_ZNK3MPI4Comm16Sendrecv_replaceEPviRKNS_8DatatypeEiiii,@function
_ZNK3MPI4Comm16Sendrecv_replaceEPviRKNS_8DatatypeEiiii: # @_ZNK3MPI4Comm16Sendrecv_replaceEPviRKNS_8DatatypeEiiii
	.cfi_startproc
# %bb.0:
	pushq	%rbp
	.cfi_def_cfa_offset 16
	.cfi_offset %rbp, -16
	movq	%rsp, %rbp
	.cfi_def_cfa_register %rbp
	subq	$96, %rsp
	movl	24(%rbp), %eax
	movl	16(%rbp), %eax
	movq	%rdi, -8(%rbp)
	movq	%rsi, -16(%rbp)
	movl	%edx, -20(%rbp)
	movq	%rcx, -32(%rbp)
	movl	%r8d, -36(%rbp)
	movl	%r9d, -40(%rbp)
	movq	-8(%rbp), %rax
	movq	%rax, -48(%rbp)                 # 8-byte Spill
	movq	-16(%rbp), %rax
	movq	%rax, -64(%rbp)                 # 8-byte Spill
	movl	-20(%rbp), %eax
	movl	%eax, -52(%rbp)                 # 4-byte Spill
	movq	-32(%rbp), %rdi
	callq	_ZNK3MPI8DatatypecvP15ompi_datatype_tEv
	movq	-64(%rbp), %rdi                 # 8-byte Reload
	movl	-52(%rbp), %esi                 # 4-byte Reload
	movq	%rax, %rdx
	movq	-48(%rbp), %rax                 # 8-byte Reload
	movl	-36(%rbp), %ecx
	movl	-40(%rbp), %r8d
	movl	16(%rbp), %r9d
	movl	24(%rbp), %r10d
	movq	8(%rax), %rax
	xorl	%r11d, %r11d
                                        # kill: def $r11 killed $r11d
	movl	%r10d, (%rsp)
	movq	%rax, 8(%rsp)
	movq	$0, 16(%rsp)
	callq	MPI_Sendrecv_replace@PLT
	addq	$96, %rsp
	popq	%rbp
	.cfi_def_cfa %rsp, 8
	retq
.Lfunc_end118:
	.size	_ZNK3MPI4Comm16Sendrecv_replaceEPviRKNS_8DatatypeEiiii, .Lfunc_end118-_ZNK3MPI4Comm16Sendrecv_replaceEPviRKNS_8DatatypeEiiii
	.cfi_endproc
                                        # -- End function
	.section	.text._ZNK3MPI4Comm9Get_groupEv,"axG",@progbits,_ZNK3MPI4Comm9Get_groupEv,comdat
	.weak	_ZNK3MPI4Comm9Get_groupEv       # -- Begin function _ZNK3MPI4Comm9Get_groupEv
	.p2align	4, 0x90
	.type	_ZNK3MPI4Comm9Get_groupEv,@function
_ZNK3MPI4Comm9Get_groupEv:              # @_ZNK3MPI4Comm9Get_groupEv
	.cfi_startproc
# %bb.0:
	pushq	%rbp
	.cfi_def_cfa_offset 16
	.cfi_offset %rbp, -16
	movq	%rsp, %rbp
	.cfi_def_cfa_register %rbp
	subq	$48, %rsp
	movq	%rdi, -40(%rbp)                 # 8-byte Spill
	movq	%rdi, %rax
	movq	%rax, -32(%rbp)                 # 8-byte Spill
	movq	%rdi, -8(%rbp)
	movq	%rsi, -16(%rbp)
	movq	-16(%rbp), %rax
	movq	8(%rax), %rdi
	leaq	-24(%rbp), %rsi
	callq	MPI_Comm_group@PLT
	movq	-40(%rbp), %rdi                 # 8-byte Reload
	movq	-24(%rbp), %rsi
	callq	_ZN3MPI5GroupC2EP12ompi_group_t
	movq	-32(%rbp), %rax                 # 8-byte Reload
	addq	$48, %rsp
	popq	%rbp
	.cfi_def_cfa %rsp, 8
	retq
.Lfunc_end119:
	.size	_ZNK3MPI4Comm9Get_groupEv, .Lfunc_end119-_ZNK3MPI4Comm9Get_groupEv
	.cfi_endproc
                                        # -- End function
	.section	.text._ZNK3MPI4Comm8Get_sizeEv,"axG",@progbits,_ZNK3MPI4Comm8Get_sizeEv,comdat
	.weak	_ZNK3MPI4Comm8Get_sizeEv        # -- Begin function _ZNK3MPI4Comm8Get_sizeEv
	.p2align	4, 0x90
	.type	_ZNK3MPI4Comm8Get_sizeEv,@function
_ZNK3MPI4Comm8Get_sizeEv:               # @_ZNK3MPI4Comm8Get_sizeEv
	.cfi_startproc
# %bb.0:
	pushq	%rbp
	.cfi_def_cfa_offset 16
	.cfi_offset %rbp, -16
	movq	%rsp, %rbp
	.cfi_def_cfa_register %rbp
	subq	$16, %rsp
	movq	%rdi, -8(%rbp)
	movq	-8(%rbp), %rax
	movq	8(%rax), %rdi
	leaq	-12(%rbp), %rsi
	callq	MPI_Comm_size@PLT
	movl	-12(%rbp), %eax
	addq	$16, %rsp
	popq	%rbp
	.cfi_def_cfa %rsp, 8
	retq
.Lfunc_end120:
	.size	_ZNK3MPI4Comm8Get_sizeEv, .Lfunc_end120-_ZNK3MPI4Comm8Get_sizeEv
	.cfi_endproc
                                        # -- End function
	.section	.text._ZNK3MPI4Comm8Get_rankEv,"axG",@progbits,_ZNK3MPI4Comm8Get_rankEv,comdat
	.weak	_ZNK3MPI4Comm8Get_rankEv        # -- Begin function _ZNK3MPI4Comm8Get_rankEv
	.p2align	4, 0x90
	.type	_ZNK3MPI4Comm8Get_rankEv,@function
_ZNK3MPI4Comm8Get_rankEv:               # @_ZNK3MPI4Comm8Get_rankEv
	.cfi_startproc
# %bb.0:
	pushq	%rbp
	.cfi_def_cfa_offset 16
	.cfi_offset %rbp, -16
	movq	%rsp, %rbp
	.cfi_def_cfa_register %rbp
	subq	$16, %rsp
	movq	%rdi, -8(%rbp)
	movq	-8(%rbp), %rax
	movq	8(%rax), %rdi
	leaq	-12(%rbp), %rsi
	callq	MPI_Comm_rank@PLT
	movl	-12(%rbp), %eax
	addq	$16, %rsp
	popq	%rbp
	.cfi_def_cfa %rsp, 8
	retq
.Lfunc_end121:
	.size	_ZNK3MPI4Comm8Get_rankEv, .Lfunc_end121-_ZNK3MPI4Comm8Get_rankEv
	.cfi_endproc
                                        # -- End function
	.section	.text._ZN3MPI4Comm4FreeEv,"axG",@progbits,_ZN3MPI4Comm4FreeEv,comdat
	.weak	_ZN3MPI4Comm4FreeEv             # -- Begin function _ZN3MPI4Comm4FreeEv
	.p2align	4, 0x90
	.type	_ZN3MPI4Comm4FreeEv,@function
_ZN3MPI4Comm4FreeEv:                    # @_ZN3MPI4Comm4FreeEv
	.cfi_startproc
# %bb.0:
	pushq	%rbp
	.cfi_def_cfa_offset 16
	.cfi_offset %rbp, -16
	movq	%rsp, %rbp
	.cfi_def_cfa_register %rbp
	subq	$16, %rsp
	movq	%rdi, -8(%rbp)
	movq	-8(%rbp), %rdi
	addq	$8, %rdi
	callq	MPI_Comm_free@PLT
	addq	$16, %rsp
	popq	%rbp
	.cfi_def_cfa %rsp, 8
	retq
.Lfunc_end122:
	.size	_ZN3MPI4Comm4FreeEv, .Lfunc_end122-_ZN3MPI4Comm4FreeEv
	.cfi_endproc
                                        # -- End function
	.section	.text._ZNK3MPI4Comm8Is_interEv,"axG",@progbits,_ZNK3MPI4Comm8Is_interEv,comdat
	.weak	_ZNK3MPI4Comm8Is_interEv        # -- Begin function _ZNK3MPI4Comm8Is_interEv
	.p2align	4, 0x90
	.type	_ZNK3MPI4Comm8Is_interEv,@function
_ZNK3MPI4Comm8Is_interEv:               # @_ZNK3MPI4Comm8Is_interEv
	.cfi_startproc
# %bb.0:
	pushq	%rbp
	.cfi_def_cfa_offset 16
	.cfi_offset %rbp, -16
	movq	%rsp, %rbp
	.cfi_def_cfa_register %rbp
	subq	$16, %rsp
	movq	%rdi, -8(%rbp)
	movq	-8(%rbp), %rax
	movq	8(%rax), %rdi
	leaq	-12(%rbp), %rsi
	callq	MPI_Comm_test_inter@PLT
	cmpl	$0, -12(%rbp)
	setne	%al
	andb	$1, %al
	movzbl	%al, %eax
	addq	$16, %rsp
	popq	%rbp
	.cfi_def_cfa %rsp, 8
	retq
.Lfunc_end123:
	.size	_ZNK3MPI4Comm8Is_interEv, .Lfunc_end123-_ZNK3MPI4Comm8Is_interEv
	.cfi_endproc
                                        # -- End function
	.section	.text._ZNK3MPI4Comm7BarrierEv,"axG",@progbits,_ZNK3MPI4Comm7BarrierEv,comdat
	.weak	_ZNK3MPI4Comm7BarrierEv         # -- Begin function _ZNK3MPI4Comm7BarrierEv
	.p2align	4, 0x90
	.type	_ZNK3MPI4Comm7BarrierEv,@function
_ZNK3MPI4Comm7BarrierEv:                # @_ZNK3MPI4Comm7BarrierEv
	.cfi_startproc
# %bb.0:
	pushq	%rbp
	.cfi_def_cfa_offset 16
	.cfi_offset %rbp, -16
	movq	%rsp, %rbp
	.cfi_def_cfa_register %rbp
	subq	$16, %rsp
	movq	%rdi, -8(%rbp)
	movq	-8(%rbp), %rax
	movq	8(%rax), %rdi
	callq	MPI_Barrier@PLT
	addq	$16, %rsp
	popq	%rbp
	.cfi_def_cfa %rsp, 8
	retq
.Lfunc_end124:
	.size	_ZNK3MPI4Comm7BarrierEv, .Lfunc_end124-_ZNK3MPI4Comm7BarrierEv
	.cfi_endproc
                                        # -- End function
	.section	.text._ZNK3MPI4Comm5BcastEPviRKNS_8DatatypeEi,"axG",@progbits,_ZNK3MPI4Comm5BcastEPviRKNS_8DatatypeEi,comdat
	.weak	_ZNK3MPI4Comm5BcastEPviRKNS_8DatatypeEi # -- Begin function _ZNK3MPI4Comm5BcastEPviRKNS_8DatatypeEi
	.p2align	4, 0x90
	.type	_ZNK3MPI4Comm5BcastEPviRKNS_8DatatypeEi,@function
_ZNK3MPI4Comm5BcastEPviRKNS_8DatatypeEi: # @_ZNK3MPI4Comm5BcastEPviRKNS_8DatatypeEi
	.cfi_startproc
# %bb.0:
	pushq	%rbp
	.cfi_def_cfa_offset 16
	.cfi_offset %rbp, -16
	movq	%rsp, %rbp
	.cfi_def_cfa_register %rbp
	subq	$64, %rsp
	movq	%rdi, -8(%rbp)
	movq	%rsi, -16(%rbp)
	movl	%edx, -20(%rbp)
	movq	%rcx, -32(%rbp)
	movl	%r8d, -36(%rbp)
	movq	-8(%rbp), %rax
	movq	%rax, -48(%rbp)                 # 8-byte Spill
	movq	-16(%rbp), %rax
	movq	%rax, -64(%rbp)                 # 8-byte Spill
	movl	-20(%rbp), %eax
	movl	%eax, -52(%rbp)                 # 4-byte Spill
	movq	-32(%rbp), %rdi
	callq	_ZNK3MPI8DatatypecvP15ompi_datatype_tEv
	movq	-64(%rbp), %rdi                 # 8-byte Reload
	movl	-52(%rbp), %esi                 # 4-byte Reload
	movq	%rax, %rdx
	movq	-48(%rbp), %rax                 # 8-byte Reload
	movl	-36(%rbp), %ecx
	movq	8(%rax), %r8
	callq	MPI_Bcast@PLT
	addq	$64, %rsp
	popq	%rbp
	.cfi_def_cfa %rsp, 8
	retq
.Lfunc_end125:
	.size	_ZNK3MPI4Comm5BcastEPviRKNS_8DatatypeEi, .Lfunc_end125-_ZNK3MPI4Comm5BcastEPviRKNS_8DatatypeEi
	.cfi_endproc
                                        # -- End function
	.section	.text._ZNK3MPI4Comm6GatherEPKviRKNS_8DatatypeEPviS5_i,"axG",@progbits,_ZNK3MPI4Comm6GatherEPKviRKNS_8DatatypeEPviS5_i,comdat
	.weak	_ZNK3MPI4Comm6GatherEPKviRKNS_8DatatypeEPviS5_i # -- Begin function _ZNK3MPI4Comm6GatherEPKviRKNS_8DatatypeEPviS5_i
	.p2align	4, 0x90
	.type	_ZNK3MPI4Comm6GatherEPKviRKNS_8DatatypeEPviS5_i,@function
_ZNK3MPI4Comm6GatherEPKviRKNS_8DatatypeEPviS5_i: # @_ZNK3MPI4Comm6GatherEPKviRKNS_8DatatypeEPviS5_i
	.cfi_startproc
# %bb.0:
	pushq	%rbp
	.cfi_def_cfa_offset 16
	.cfi_offset %rbp, -16
	movq	%rsp, %rbp
	.cfi_def_cfa_register %rbp
	subq	$112, %rsp
	movl	24(%rbp), %eax
	movq	16(%rbp), %rax
	movq	%rdi, -8(%rbp)
	movq	%rsi, -16(%rbp)
	movl	%edx, -20(%rbp)
	movq	%rcx, -32(%rbp)
	movq	%r8, -40(%rbp)
	movl	%r9d, -44(%rbp)
	movq	-8(%rbp), %rax
	movq	%rax, -56(%rbp)                 # 8-byte Spill
	movq	-16(%rbp), %rax
	movq	%rax, -96(%rbp)                 # 8-byte Spill
	movl	-20(%rbp), %eax
	movl	%eax, -84(%rbp)                 # 4-byte Spill
	movq	-32(%rbp), %rdi
	callq	_ZNK3MPI8DatatypecvP15ompi_datatype_tEv
	movq	%rax, -80(%rbp)                 # 8-byte Spill
	movq	-40(%rbp), %rax
	movq	%rax, -72(%rbp)                 # 8-byte Spill
	movl	-44(%rbp), %eax
	movl	%eax, -60(%rbp)                 # 4-byte Spill
	movq	16(%rbp), %rdi
	callq	_ZNK3MPI8DatatypecvP15ompi_datatype_tEv
	movq	-96(%rbp), %rdi                 # 8-byte Reload
	movl	-84(%rbp), %esi                 # 4-byte Reload
	movq	-80(%rbp), %rdx                 # 8-byte Reload
	movq	-72(%rbp), %rcx                 # 8-byte Reload
	movl	-60(%rbp), %r8d                 # 4-byte Reload
	movq	%rax, %r9
	movq	-56(%rbp), %rax                 # 8-byte Reload
	movl	24(%rbp), %r10d
	movq	8(%rax), %rax
	movl	%r10d, (%rsp)
	movq	%rax, 8(%rsp)
	callq	MPI_Gather@PLT
	addq	$112, %rsp
	popq	%rbp
	.cfi_def_cfa %rsp, 8
	retq
.Lfunc_end126:
	.size	_ZNK3MPI4Comm6GatherEPKviRKNS_8DatatypeEPviS5_i, .Lfunc_end126-_ZNK3MPI4Comm6GatherEPKviRKNS_8DatatypeEPviS5_i
	.cfi_endproc
                                        # -- End function
	.section	.text._ZNK3MPI4Comm7GathervEPKviRKNS_8DatatypeEPvPKiS8_S5_i,"axG",@progbits,_ZNK3MPI4Comm7GathervEPKviRKNS_8DatatypeEPvPKiS8_S5_i,comdat
	.weak	_ZNK3MPI4Comm7GathervEPKviRKNS_8DatatypeEPvPKiS8_S5_i # -- Begin function _ZNK3MPI4Comm7GathervEPKviRKNS_8DatatypeEPvPKiS8_S5_i
	.p2align	4, 0x90
	.type	_ZNK3MPI4Comm7GathervEPKviRKNS_8DatatypeEPvPKiS8_S5_i,@function
_ZNK3MPI4Comm7GathervEPKviRKNS_8DatatypeEPvPKiS8_S5_i: # @_ZNK3MPI4Comm7GathervEPKviRKNS_8DatatypeEPvPKiS8_S5_i
	.cfi_startproc
# %bb.0:
	pushq	%rbp
	.cfi_def_cfa_offset 16
	.cfi_offset %rbp, -16
	movq	%rsp, %rbp
	.cfi_def_cfa_register %rbp
	subq	$128, %rsp
	movl	32(%rbp), %eax
	movq	24(%rbp), %rax
	movq	16(%rbp), %rax
	movq	%rdi, -8(%rbp)
	movq	%rsi, -16(%rbp)
	movl	%edx, -20(%rbp)
	movq	%rcx, -32(%rbp)
	movq	%r8, -40(%rbp)
	movq	%r9, -48(%rbp)
	movq	-8(%rbp), %rax
	movq	%rax, -56(%rbp)                 # 8-byte Spill
	movq	-16(%rbp), %rax
	movq	%rax, -104(%rbp)                # 8-byte Spill
	movl	-20(%rbp), %eax
	movl	%eax, -92(%rbp)                 # 4-byte Spill
	movq	-32(%rbp), %rdi
	callq	_ZNK3MPI8DatatypecvP15ompi_datatype_tEv
	movq	%rax, -88(%rbp)                 # 8-byte Spill
	movq	-40(%rbp), %rax
	movq	%rax, -80(%rbp)                 # 8-byte Spill
	movq	-48(%rbp), %rax
	movq	%rax, -72(%rbp)                 # 8-byte Spill
	movq	16(%rbp), %rax
	movq	%rax, -64(%rbp)                 # 8-byte Spill
	movq	24(%rbp), %rdi
	callq	_ZNK3MPI8DatatypecvP15ompi_datatype_tEv
	movq	-104(%rbp), %rdi                # 8-byte Reload
	movl	-92(%rbp), %esi                 # 4-byte Reload
	movq	-88(%rbp), %rdx                 # 8-byte Reload
	movq	-80(%rbp), %rcx                 # 8-byte Reload
	movq	-72(%rbp), %r8                  # 8-byte Reload
	movq	-64(%rbp), %r9                  # 8-byte Reload
	movq	%rax, %r11
	movq	-56(%rbp), %rax                 # 8-byte Reload
	movl	32(%rbp), %r10d
	movq	8(%rax), %rax
	movq	%r11, (%rsp)
	movl	%r10d, 8(%rsp)
	movq	%rax, 16(%rsp)
	callq	MPI_Gatherv@PLT
	addq	$128, %rsp
	popq	%rbp
	.cfi_def_cfa %rsp, 8
	retq
.Lfunc_end127:
	.size	_ZNK3MPI4Comm7GathervEPKviRKNS_8DatatypeEPvPKiS8_S5_i, .Lfunc_end127-_ZNK3MPI4Comm7GathervEPKviRKNS_8DatatypeEPvPKiS8_S5_i
	.cfi_endproc
                                        # -- End function
	.section	.text._ZNK3MPI4Comm7ScatterEPKviRKNS_8DatatypeEPviS5_i,"axG",@progbits,_ZNK3MPI4Comm7ScatterEPKviRKNS_8DatatypeEPviS5_i,comdat
	.weak	_ZNK3MPI4Comm7ScatterEPKviRKNS_8DatatypeEPviS5_i # -- Begin function _ZNK3MPI4Comm7ScatterEPKviRKNS_8DatatypeEPviS5_i
	.p2align	4, 0x90
	.type	_ZNK3MPI4Comm7ScatterEPKviRKNS_8DatatypeEPviS5_i,@function
_ZNK3MPI4Comm7ScatterEPKviRKNS_8DatatypeEPviS5_i: # @_ZNK3MPI4Comm7ScatterEPKviRKNS_8DatatypeEPviS5_i
	.cfi_startproc
# %bb.0:
	pushq	%rbp
	.cfi_def_cfa_offset 16
	.cfi_offset %rbp, -16
	movq	%rsp, %rbp
	.cfi_def_cfa_register %rbp
	subq	$112, %rsp
	movl	24(%rbp), %eax
	movq	16(%rbp), %rax
	movq	%rdi, -8(%rbp)
	movq	%rsi, -16(%rbp)
	movl	%edx, -20(%rbp)
	movq	%rcx, -32(%rbp)
	movq	%r8, -40(%rbp)
	movl	%r9d, -44(%rbp)
	movq	-8(%rbp), %rax
	movq	%rax, -56(%rbp)                 # 8-byte Spill
	movq	-16(%rbp), %rax
	movq	%rax, -96(%rbp)                 # 8-byte Spill
	movl	-20(%rbp), %eax
	movl	%eax, -84(%rbp)                 # 4-byte Spill
	movq	-32(%rbp), %rdi
	callq	_ZNK3MPI8DatatypecvP15ompi_datatype_tEv
	movq	%rax, -80(%rbp)                 # 8-byte Spill
	movq	-40(%rbp), %rax
	movq	%rax, -72(%rbp)                 # 8-byte Spill
	movl	-44(%rbp), %eax
	movl	%eax, -60(%rbp)                 # 4-byte Spill
	movq	16(%rbp), %rdi
	callq	_ZNK3MPI8DatatypecvP15ompi_datatype_tEv
	movq	-96(%rbp), %rdi                 # 8-byte Reload
	movl	-84(%rbp), %esi                 # 4-byte Reload
	movq	-80(%rbp), %rdx                 # 8-byte Reload
	movq	-72(%rbp), %rcx                 # 8-byte Reload
	movl	-60(%rbp), %r8d                 # 4-byte Reload
	movq	%rax, %r9
	movq	-56(%rbp), %rax                 # 8-byte Reload
	movl	24(%rbp), %r10d
	movq	8(%rax), %rax
	movl	%r10d, (%rsp)
	movq	%rax, 8(%rsp)
	callq	MPI_Scatter@PLT
	addq	$112, %rsp
	popq	%rbp
	.cfi_def_cfa %rsp, 8
	retq
.Lfunc_end128:
	.size	_ZNK3MPI4Comm7ScatterEPKviRKNS_8DatatypeEPviS5_i, .Lfunc_end128-_ZNK3MPI4Comm7ScatterEPKviRKNS_8DatatypeEPviS5_i
	.cfi_endproc
                                        # -- End function
	.section	.text._ZNK3MPI4Comm8ScattervEPKvPKiS4_RKNS_8DatatypeEPviS7_i,"axG",@progbits,_ZNK3MPI4Comm8ScattervEPKvPKiS4_RKNS_8DatatypeEPviS7_i,comdat
	.weak	_ZNK3MPI4Comm8ScattervEPKvPKiS4_RKNS_8DatatypeEPviS7_i # -- Begin function _ZNK3MPI4Comm8ScattervEPKvPKiS4_RKNS_8DatatypeEPviS7_i
	.p2align	4, 0x90
	.type	_ZNK3MPI4Comm8ScattervEPKvPKiS4_RKNS_8DatatypeEPviS7_i,@function
_ZNK3MPI4Comm8ScattervEPKvPKiS4_RKNS_8DatatypeEPviS7_i: # @_ZNK3MPI4Comm8ScattervEPKvPKiS4_RKNS_8DatatypeEPviS7_i
	.cfi_startproc
# %bb.0:
	pushq	%rbp
	.cfi_def_cfa_offset 16
	.cfi_offset %rbp, -16
	movq	%rsp, %rbp
	.cfi_def_cfa_register %rbp
	subq	$128, %rsp
	movl	32(%rbp), %eax
	movq	24(%rbp), %rax
	movl	16(%rbp), %eax
	movq	%rdi, -8(%rbp)
	movq	%rsi, -16(%rbp)
	movq	%rdx, -24(%rbp)
	movq	%rcx, -32(%rbp)
	movq	%r8, -40(%rbp)
	movq	%r9, -48(%rbp)
	movq	-8(%rbp), %rax
	movq	%rax, -56(%rbp)                 # 8-byte Spill
	movq	-16(%rbp), %rax
	movq	%rax, -104(%rbp)                # 8-byte Spill
	movq	-24(%rbp), %rax
	movq	%rax, -96(%rbp)                 # 8-byte Spill
	movq	-32(%rbp), %rax
	movq	%rax, -88(%rbp)                 # 8-byte Spill
	movq	-40(%rbp), %rdi
	callq	_ZNK3MPI8DatatypecvP15ompi_datatype_tEv
	movq	%rax, -80(%rbp)                 # 8-byte Spill
	movq	-48(%rbp), %rax
	movq	%rax, -72(%rbp)                 # 8-byte Spill
	movl	16(%rbp), %eax
	movl	%eax, -60(%rbp)                 # 4-byte Spill
	movq	24(%rbp), %rdi
	callq	_ZNK3MPI8DatatypecvP15ompi_datatype_tEv
	movq	-104(%rbp), %rdi                # 8-byte Reload
	movq	-96(%rbp), %rsi                 # 8-byte Reload
	movq	-88(%rbp), %rdx                 # 8-byte Reload
	movq	-80(%rbp), %rcx                 # 8-byte Reload
	movq	-72(%rbp), %r8                  # 8-byte Reload
	movl	-60(%rbp), %r9d                 # 4-byte Reload
	movq	%rax, %r11
	movq	-56(%rbp), %rax                 # 8-byte Reload
	movl	32(%rbp), %r10d
	movq	8(%rax), %rax
	movq	%r11, (%rsp)
	movl	%r10d, 8(%rsp)
	movq	%rax, 16(%rsp)
	callq	MPI_Scatterv@PLT
	addq	$128, %rsp
	popq	%rbp
	.cfi_def_cfa %rsp, 8
	retq
.Lfunc_end129:
	.size	_ZNK3MPI4Comm8ScattervEPKvPKiS4_RKNS_8DatatypeEPviS7_i, .Lfunc_end129-_ZNK3MPI4Comm8ScattervEPKvPKiS4_RKNS_8DatatypeEPviS7_i
	.cfi_endproc
                                        # -- End function
	.section	.text._ZNK3MPI4Comm9AllgatherEPKviRKNS_8DatatypeEPviS5_,"axG",@progbits,_ZNK3MPI4Comm9AllgatherEPKviRKNS_8DatatypeEPviS5_,comdat
	.weak	_ZNK3MPI4Comm9AllgatherEPKviRKNS_8DatatypeEPviS5_ # -- Begin function _ZNK3MPI4Comm9AllgatherEPKviRKNS_8DatatypeEPviS5_
	.p2align	4, 0x90
	.type	_ZNK3MPI4Comm9AllgatherEPKviRKNS_8DatatypeEPviS5_,@function
_ZNK3MPI4Comm9AllgatherEPKviRKNS_8DatatypeEPviS5_: # @_ZNK3MPI4Comm9AllgatherEPKviRKNS_8DatatypeEPviS5_
	.cfi_startproc
# %bb.0:
	pushq	%rbp
	.cfi_def_cfa_offset 16
	.cfi_offset %rbp, -16
	movq	%rsp, %rbp
	.cfi_def_cfa_register %rbp
	subq	$112, %rsp
	movq	16(%rbp), %rax
	movq	%rdi, -8(%rbp)
	movq	%rsi, -16(%rbp)
	movl	%edx, -20(%rbp)
	movq	%rcx, -32(%rbp)
	movq	%r8, -40(%rbp)
	movl	%r9d, -44(%rbp)
	movq	-8(%rbp), %rax
	movq	%rax, -56(%rbp)                 # 8-byte Spill
	movq	-16(%rbp), %rax
	movq	%rax, -96(%rbp)                 # 8-byte Spill
	movl	-20(%rbp), %eax
	movl	%eax, -84(%rbp)                 # 4-byte Spill
	movq	-32(%rbp), %rdi
	callq	_ZNK3MPI8DatatypecvP15ompi_datatype_tEv
	movq	%rax, -80(%rbp)                 # 8-byte Spill
	movq	-40(%rbp), %rax
	movq	%rax, -72(%rbp)                 # 8-byte Spill
	movl	-44(%rbp), %eax
	movl	%eax, -60(%rbp)                 # 4-byte Spill
	movq	16(%rbp), %rdi
	callq	_ZNK3MPI8DatatypecvP15ompi_datatype_tEv
	movq	-96(%rbp), %rdi                 # 8-byte Reload
	movl	-84(%rbp), %esi                 # 4-byte Reload
	movq	-80(%rbp), %rdx                 # 8-byte Reload
	movq	-72(%rbp), %rcx                 # 8-byte Reload
	movl	-60(%rbp), %r8d                 # 4-byte Reload
	movq	%rax, %r9
	movq	-56(%rbp), %rax                 # 8-byte Reload
	movq	8(%rax), %rax
	movq	%rax, (%rsp)
	callq	MPI_Allgather@PLT
	addq	$112, %rsp
	popq	%rbp
	.cfi_def_cfa %rsp, 8
	retq
.Lfunc_end130:
	.size	_ZNK3MPI4Comm9AllgatherEPKviRKNS_8DatatypeEPviS5_, .Lfunc_end130-_ZNK3MPI4Comm9AllgatherEPKviRKNS_8DatatypeEPviS5_
	.cfi_endproc
                                        # -- End function
	.section	.text._ZNK3MPI4Comm10AllgathervEPKviRKNS_8DatatypeEPvPKiS8_S5_,"axG",@progbits,_ZNK3MPI4Comm10AllgathervEPKviRKNS_8DatatypeEPvPKiS8_S5_,comdat
	.weak	_ZNK3MPI4Comm10AllgathervEPKviRKNS_8DatatypeEPvPKiS8_S5_ # -- Begin function _ZNK3MPI4Comm10AllgathervEPKviRKNS_8DatatypeEPvPKiS8_S5_
	.p2align	4, 0x90
	.type	_ZNK3MPI4Comm10AllgathervEPKviRKNS_8DatatypeEPvPKiS8_S5_,@function
_ZNK3MPI4Comm10AllgathervEPKviRKNS_8DatatypeEPvPKiS8_S5_: # @_ZNK3MPI4Comm10AllgathervEPKviRKNS_8DatatypeEPvPKiS8_S5_
	.cfi_startproc
# %bb.0:
	pushq	%rbp
	.cfi_def_cfa_offset 16
	.cfi_offset %rbp, -16
	movq	%rsp, %rbp
	.cfi_def_cfa_register %rbp
	subq	$128, %rsp
	movq	24(%rbp), %rax
	movq	16(%rbp), %rax
	movq	%rdi, -8(%rbp)
	movq	%rsi, -16(%rbp)
	movl	%edx, -20(%rbp)
	movq	%rcx, -32(%rbp)
	movq	%r8, -40(%rbp)
	movq	%r9, -48(%rbp)
	movq	-8(%rbp), %rax
	movq	%rax, -56(%rbp)                 # 8-byte Spill
	movq	-16(%rbp), %rax
	movq	%rax, -104(%rbp)                # 8-byte Spill
	movl	-20(%rbp), %eax
	movl	%eax, -92(%rbp)                 # 4-byte Spill
	movq	-32(%rbp), %rdi
	callq	_ZNK3MPI8DatatypecvP15ompi_datatype_tEv
	movq	%rax, -88(%rbp)                 # 8-byte Spill
	movq	-40(%rbp), %rax
	movq	%rax, -80(%rbp)                 # 8-byte Spill
	movq	-48(%rbp), %rax
	movq	%rax, -72(%rbp)                 # 8-byte Spill
	movq	16(%rbp), %rax
	movq	%rax, -64(%rbp)                 # 8-byte Spill
	movq	24(%rbp), %rdi
	callq	_ZNK3MPI8DatatypecvP15ompi_datatype_tEv
	movq	-104(%rbp), %rdi                # 8-byte Reload
	movl	-92(%rbp), %esi                 # 4-byte Reload
	movq	-88(%rbp), %rdx                 # 8-byte Reload
	movq	-80(%rbp), %rcx                 # 8-byte Reload
	movq	-72(%rbp), %r8                  # 8-byte Reload
	movq	-64(%rbp), %r9                  # 8-byte Reload
	movq	%rax, %r10
	movq	-56(%rbp), %rax                 # 8-byte Reload
	movq	8(%rax), %rax
	movq	%r10, (%rsp)
	movq	%rax, 8(%rsp)
	callq	MPI_Allgatherv@PLT
	addq	$128, %rsp
	popq	%rbp
	.cfi_def_cfa %rsp, 8
	retq
.Lfunc_end131:
	.size	_ZNK3MPI4Comm10AllgathervEPKviRKNS_8DatatypeEPvPKiS8_S5_, .Lfunc_end131-_ZNK3MPI4Comm10AllgathervEPKviRKNS_8DatatypeEPvPKiS8_S5_
	.cfi_endproc
                                        # -- End function
	.section	.text._ZNK3MPI4Comm8AlltoallEPKviRKNS_8DatatypeEPviS5_,"axG",@progbits,_ZNK3MPI4Comm8AlltoallEPKviRKNS_8DatatypeEPviS5_,comdat
	.weak	_ZNK3MPI4Comm8AlltoallEPKviRKNS_8DatatypeEPviS5_ # -- Begin function _ZNK3MPI4Comm8AlltoallEPKviRKNS_8DatatypeEPviS5_
	.p2align	4, 0x90
	.type	_ZNK3MPI4Comm8AlltoallEPKviRKNS_8DatatypeEPviS5_,@function
_ZNK3MPI4Comm8AlltoallEPKviRKNS_8DatatypeEPviS5_: # @_ZNK3MPI4Comm8AlltoallEPKviRKNS_8DatatypeEPviS5_
	.cfi_startproc
# %bb.0:
	pushq	%rbp
	.cfi_def_cfa_offset 16
	.cfi_offset %rbp, -16
	movq	%rsp, %rbp
	.cfi_def_cfa_register %rbp
	subq	$112, %rsp
	movq	16(%rbp), %rax
	movq	%rdi, -8(%rbp)
	movq	%rsi, -16(%rbp)
	movl	%edx, -20(%rbp)
	movq	%rcx, -32(%rbp)
	movq	%r8, -40(%rbp)
	movl	%r9d, -44(%rbp)
	movq	-8(%rbp), %rax
	movq	%rax, -56(%rbp)                 # 8-byte Spill
	movq	-16(%rbp), %rax
	movq	%rax, -96(%rbp)                 # 8-byte Spill
	movl	-20(%rbp), %eax
	movl	%eax, -84(%rbp)                 # 4-byte Spill
	movq	-32(%rbp), %rdi
	callq	_ZNK3MPI8DatatypecvP15ompi_datatype_tEv
	movq	%rax, -80(%rbp)                 # 8-byte Spill
	movq	-40(%rbp), %rax
	movq	%rax, -72(%rbp)                 # 8-byte Spill
	movl	-44(%rbp), %eax
	movl	%eax, -60(%rbp)                 # 4-byte Spill
	movq	16(%rbp), %rdi
	callq	_ZNK3MPI8DatatypecvP15ompi_datatype_tEv
	movq	-96(%rbp), %rdi                 # 8-byte Reload
	movl	-84(%rbp), %esi                 # 4-byte Reload
	movq	-80(%rbp), %rdx                 # 8-byte Reload
	movq	-72(%rbp), %rcx                 # 8-byte Reload
	movl	-60(%rbp), %r8d                 # 4-byte Reload
	movq	%rax, %r9
	movq	-56(%rbp), %rax                 # 8-byte Reload
	movq	8(%rax), %rax
	movq	%rax, (%rsp)
	callq	MPI_Alltoall@PLT
	addq	$112, %rsp
	popq	%rbp
	.cfi_def_cfa %rsp, 8
	retq
.Lfunc_end132:
	.size	_ZNK3MPI4Comm8AlltoallEPKviRKNS_8DatatypeEPviS5_, .Lfunc_end132-_ZNK3MPI4Comm8AlltoallEPKviRKNS_8DatatypeEPviS5_
	.cfi_endproc
                                        # -- End function
	.section	.text._ZNK3MPI4Comm9AlltoallvEPKvPKiS4_RKNS_8DatatypeEPvS4_S4_S7_,"axG",@progbits,_ZNK3MPI4Comm9AlltoallvEPKvPKiS4_RKNS_8DatatypeEPvS4_S4_S7_,comdat
	.weak	_ZNK3MPI4Comm9AlltoallvEPKvPKiS4_RKNS_8DatatypeEPvS4_S4_S7_ # -- Begin function _ZNK3MPI4Comm9AlltoallvEPKvPKiS4_RKNS_8DatatypeEPvS4_S4_S7_
	.p2align	4, 0x90
	.type	_ZNK3MPI4Comm9AlltoallvEPKvPKiS4_RKNS_8DatatypeEPvS4_S4_S7_,@function
_ZNK3MPI4Comm9AlltoallvEPKvPKiS4_RKNS_8DatatypeEPvS4_S4_S7_: # @_ZNK3MPI4Comm9AlltoallvEPKvPKiS4_RKNS_8DatatypeEPvS4_S4_S7_
	.cfi_startproc
# %bb.0:
	pushq	%rbp
	.cfi_def_cfa_offset 16
	.cfi_offset %rbp, -16
	movq	%rsp, %rbp
	.cfi_def_cfa_register %rbp
	subq	$144, %rsp
	movq	32(%rbp), %rax
	movq	24(%rbp), %rax
	movq	16(%rbp), %rax
	movq	%rdi, -8(%rbp)
	movq	%rsi, -16(%rbp)
	movq	%rdx, -24(%rbp)
	movq	%rcx, -32(%rbp)
	movq	%r8, -40(%rbp)
	movq	%r9, -48(%rbp)
	movq	-8(%rbp), %rax
	movq	%rax, -56(%rbp)                 # 8-byte Spill
	movq	-16(%rbp), %rax
	movq	%rax, -112(%rbp)                # 8-byte Spill
	movq	-24(%rbp), %rax
	movq	%rax, -104(%rbp)                # 8-byte Spill
	movq	-32(%rbp), %rax
	movq	%rax, -96(%rbp)                 # 8-byte Spill
	movq	-40(%rbp), %rdi
	callq	_ZNK3MPI8DatatypecvP15ompi_datatype_tEv
	movq	%rax, -88(%rbp)                 # 8-byte Spill
	movq	-48(%rbp), %rax
	movq	%rax, -80(%rbp)                 # 8-byte Spill
	movq	16(%rbp), %rax
	movq	%rax, -72(%rbp)                 # 8-byte Spill
	movq	24(%rbp), %rax
	movq	%rax, -64(%rbp)                 # 8-byte Spill
	movq	32(%rbp), %rdi
	callq	_ZNK3MPI8DatatypecvP15ompi_datatype_tEv
	movq	-112(%rbp), %rdi                # 8-byte Reload
	movq	-104(%rbp), %rsi                # 8-byte Reload
	movq	-96(%rbp), %rdx                 # 8-byte Reload
	movq	-88(%rbp), %rcx                 # 8-byte Reload
	movq	-80(%rbp), %r8                  # 8-byte Reload
	movq	-72(%rbp), %r9                  # 8-byte Reload
	movq	-64(%rbp), %r11                 # 8-byte Reload
	movq	%rax, %r10
	movq	-56(%rbp), %rax                 # 8-byte Reload
	movq	8(%rax), %rax
	movq	%r11, (%rsp)
	movq	%r10, 8(%rsp)
	movq	%rax, 16(%rsp)
	callq	MPI_Alltoallv@PLT
	addq	$144, %rsp
	popq	%rbp
	.cfi_def_cfa %rsp, 8
	retq
.Lfunc_end133:
	.size	_ZNK3MPI4Comm9AlltoallvEPKvPKiS4_RKNS_8DatatypeEPvS4_S4_S7_, .Lfunc_end133-_ZNK3MPI4Comm9AlltoallvEPKvPKiS4_RKNS_8DatatypeEPvS4_S4_S7_
	.cfi_endproc
                                        # -- End function
	.section	.text._ZNK3MPI4Comm9AlltoallwEPKvPKiS4_PKNS_8DatatypeEPvS4_S4_S7_,"axG",@progbits,_ZNK3MPI4Comm9AlltoallwEPKvPKiS4_PKNS_8DatatypeEPvS4_S4_S7_,comdat
	.weak	_ZNK3MPI4Comm9AlltoallwEPKvPKiS4_PKNS_8DatatypeEPvS4_S4_S7_ # -- Begin function _ZNK3MPI4Comm9AlltoallwEPKvPKiS4_PKNS_8DatatypeEPvS4_S4_S7_
	.p2align	4, 0x90
	.type	_ZNK3MPI4Comm9AlltoallwEPKvPKiS4_PKNS_8DatatypeEPvS4_S4_S7_,@function
_ZNK3MPI4Comm9AlltoallwEPKvPKiS4_PKNS_8DatatypeEPvS4_S4_S7_: # @_ZNK3MPI4Comm9AlltoallwEPKvPKiS4_PKNS_8DatatypeEPvS4_S4_S7_
	.cfi_startproc
# %bb.0:
	pushq	%rbp
	.cfi_def_cfa_offset 16
	.cfi_offset %rbp, -16
	movq	%rsp, %rbp
	.cfi_def_cfa_register %rbp
	pushq	%rbx
	subq	$120, %rsp
	.cfi_offset %rbx, -24
	movq	32(%rbp), %rax
	movq	24(%rbp), %rax
	movq	16(%rbp), %rax
	movq	%rdi, -16(%rbp)
	movq	%rsi, -24(%rbp)
	movq	%rdx, -32(%rbp)
	movq	%rcx, -40(%rbp)
	movq	%r8, -48(%rbp)
	movq	%r9, -56(%rbp)
	movq	-16(%rbp), %rdi
	movq	%rdi, -88(%rbp)                 # 8-byte Spill
	movq	(%rdi), %rax
	callq	*216(%rax)
	movl	%eax, -60(%rbp)
	movl	-60(%rbp), %eax
	shll	$1, %eax
	cltq
	movl	$8, %ecx
	mulq	%rcx
	movq	%rax, %rdi
	seto	%al
	movq	$-1, %rax
	cmovoq	%rax, %rdi
	callq	_Znam@PLT
	movq	%rax, -72(%rbp)
	movl	$0, -76(%rbp)
.LBB134_1:                              # =>This Inner Loop Header: Depth=1
	movl	-76(%rbp), %eax
	cmpl	-60(%rbp), %eax
	jge	.LBB134_4
# %bb.2:                                #   in Loop: Header=BB134_1 Depth=1
	movq	-48(%rbp), %rdi
	movslq	-76(%rbp), %rax
	shlq	$4, %rax
	addq	%rax, %rdi
	callq	_ZNK3MPI8DatatypecvP15ompi_datatype_tEv
	movq	%rax, %rdx
	movq	-72(%rbp), %rax
	movslq	-76(%rbp), %rcx
	movq	%rdx, (%rax,%rcx,8)
	movq	32(%rbp), %rdi
	movslq	-76(%rbp), %rax
	shlq	$4, %rax
	addq	%rax, %rdi
	callq	_ZNK3MPI8DatatypecvP15ompi_datatype_tEv
	movq	%rax, %rdx
	movq	-72(%rbp), %rax
	movl	-76(%rbp), %ecx
	addl	-60(%rbp), %ecx
	movslq	%ecx, %rcx
	movq	%rdx, (%rax,%rcx,8)
# %bb.3:                                #   in Loop: Header=BB134_1 Depth=1
	movl	-76(%rbp), %eax
	addl	$1, %eax
	movl	%eax, -76(%rbp)
	jmp	.LBB134_1
.LBB134_4:
	movq	-88(%rbp), %rax                 # 8-byte Reload
	movq	-24(%rbp), %rdi
	movq	-32(%rbp), %rsi
	movq	-40(%rbp), %rdx
	movq	-72(%rbp), %rcx
	movq	-56(%rbp), %r8
	movq	16(%rbp), %r9
	movq	24(%rbp), %r11
	movq	-72(%rbp), %r10
	movslq	-60(%rbp), %rbx
	shlq	$3, %rbx
	addq	%rbx, %r10
	movq	8(%rax), %rax
	movq	%r11, (%rsp)
	movq	%r10, 8(%rsp)
	movq	%rax, 16(%rsp)
	callq	MPI_Alltoallw@PLT
	movq	-72(%rbp), %rax
	movq	%rax, -96(%rbp)                 # 8-byte Spill
	cmpq	$0, %rax
	je	.LBB134_6
# %bb.5:
	movq	-96(%rbp), %rdi                 # 8-byte Reload
	callq	_ZdaPv@PLT
.LBB134_6:
	addq	$120, %rsp
	popq	%rbx
	popq	%rbp
	.cfi_def_cfa %rsp, 8
	retq
.Lfunc_end134:
	.size	_ZNK3MPI4Comm9AlltoallwEPKvPKiS4_PKNS_8DatatypeEPvS4_S4_S7_, .Lfunc_end134-_ZNK3MPI4Comm9AlltoallwEPKvPKiS4_PKNS_8DatatypeEPvS4_S4_S7_
	.cfi_endproc
                                        # -- End function
	.section	.text._ZNK3MPI4Comm6ReduceEPKvPviRKNS_8DatatypeERKNS_2OpEi,"axG",@progbits,_ZNK3MPI4Comm6ReduceEPKvPviRKNS_8DatatypeERKNS_2OpEi,comdat
	.weak	_ZNK3MPI4Comm6ReduceEPKvPviRKNS_8DatatypeERKNS_2OpEi # -- Begin function _ZNK3MPI4Comm6ReduceEPKvPviRKNS_8DatatypeERKNS_2OpEi
	.p2align	4, 0x90
	.type	_ZNK3MPI4Comm6ReduceEPKvPviRKNS_8DatatypeERKNS_2OpEi,@function
_ZNK3MPI4Comm6ReduceEPKvPviRKNS_8DatatypeERKNS_2OpEi: # @_ZNK3MPI4Comm6ReduceEPKvPviRKNS_8DatatypeERKNS_2OpEi
	.cfi_startproc
# %bb.0:
	pushq	%rbp
	.cfi_def_cfa_offset 16
	.cfi_offset %rbp, -16
	movq	%rsp, %rbp
	.cfi_def_cfa_register %rbp
	subq	$96, %rsp
	movl	16(%rbp), %eax
	movq	%rdi, -8(%rbp)
	movq	%rsi, -16(%rbp)
	movq	%rdx, -24(%rbp)
	movl	%ecx, -28(%rbp)
	movq	%r8, -40(%rbp)
	movq	%r9, -48(%rbp)
	movq	-8(%rbp), %rax
	movq	%rax, -56(%rbp)                 # 8-byte Spill
	movq	-16(%rbp), %rax
	movq	%rax, -88(%rbp)                 # 8-byte Spill
	movq	-24(%rbp), %rax
	movq	%rax, -80(%rbp)                 # 8-byte Spill
	movl	-28(%rbp), %eax
	movl	%eax, -68(%rbp)                 # 4-byte Spill
	movq	-40(%rbp), %rdi
	callq	_ZNK3MPI8DatatypecvP15ompi_datatype_tEv
	movq	%rax, -64(%rbp)                 # 8-byte Spill
	movq	-48(%rbp), %rdi
	callq	_ZNK3MPI2OpcvP9ompi_op_tEv
	movq	-88(%rbp), %rdi                 # 8-byte Reload
	movq	-80(%rbp), %rsi                 # 8-byte Reload
	movl	-68(%rbp), %edx                 # 4-byte Reload
	movq	-64(%rbp), %rcx                 # 8-byte Reload
	movq	%rax, %r8
	movq	-56(%rbp), %rax                 # 8-byte Reload
	movl	16(%rbp), %r9d
	movq	8(%rax), %rax
	movq	%rax, (%rsp)
	callq	MPI_Reduce@PLT
	addq	$96, %rsp
	popq	%rbp
	.cfi_def_cfa %rsp, 8
	retq
.Lfunc_end135:
	.size	_ZNK3MPI4Comm6ReduceEPKvPviRKNS_8DatatypeERKNS_2OpEi, .Lfunc_end135-_ZNK3MPI4Comm6ReduceEPKvPviRKNS_8DatatypeERKNS_2OpEi
	.cfi_endproc
                                        # -- End function
	.section	.text._ZNK3MPI4Comm9AllreduceEPKvPviRKNS_8DatatypeERKNS_2OpE,"axG",@progbits,_ZNK3MPI4Comm9AllreduceEPKvPviRKNS_8DatatypeERKNS_2OpE,comdat
	.weak	_ZNK3MPI4Comm9AllreduceEPKvPviRKNS_8DatatypeERKNS_2OpE # -- Begin function _ZNK3MPI4Comm9AllreduceEPKvPviRKNS_8DatatypeERKNS_2OpE
	.p2align	4, 0x90
	.type	_ZNK3MPI4Comm9AllreduceEPKvPviRKNS_8DatatypeERKNS_2OpE,@function
_ZNK3MPI4Comm9AllreduceEPKvPviRKNS_8DatatypeERKNS_2OpE: # @_ZNK3MPI4Comm9AllreduceEPKvPviRKNS_8DatatypeERKNS_2OpE
	.cfi_startproc
# %bb.0:
	pushq	%rbp
	.cfi_def_cfa_offset 16
	.cfi_offset %rbp, -16
	movq	%rsp, %rbp
	.cfi_def_cfa_register %rbp
	subq	$96, %rsp
	movq	%rdi, -8(%rbp)
	movq	%rsi, -16(%rbp)
	movq	%rdx, -24(%rbp)
	movl	%ecx, -28(%rbp)
	movq	%r8, -40(%rbp)
	movq	%r9, -48(%rbp)
	movq	-8(%rbp), %rax
	movq	%rax, -56(%rbp)                 # 8-byte Spill
	movq	-16(%rbp), %rax
	movq	%rax, -88(%rbp)                 # 8-byte Spill
	movq	-24(%rbp), %rax
	movq	%rax, -80(%rbp)                 # 8-byte Spill
	movl	-28(%rbp), %eax
	movl	%eax, -68(%rbp)                 # 4-byte Spill
	movq	-40(%rbp), %rdi
	callq	_ZNK3MPI8DatatypecvP15ompi_datatype_tEv
	movq	%rax, -64(%rbp)                 # 8-byte Spill
	movq	-48(%rbp), %rdi
	callq	_ZNK3MPI2OpcvP9ompi_op_tEv
	movq	-88(%rbp), %rdi                 # 8-byte Reload
	movq	-80(%rbp), %rsi                 # 8-byte Reload
	movl	-68(%rbp), %edx                 # 4-byte Reload
	movq	-64(%rbp), %rcx                 # 8-byte Reload
	movq	%rax, %r8
	movq	-56(%rbp), %rax                 # 8-byte Reload
	movq	8(%rax), %r9
	callq	MPI_Allreduce@PLT
	addq	$96, %rsp
	popq	%rbp
	.cfi_def_cfa %rsp, 8
	retq
.Lfunc_end136:
	.size	_ZNK3MPI4Comm9AllreduceEPKvPviRKNS_8DatatypeERKNS_2OpE, .Lfunc_end136-_ZNK3MPI4Comm9AllreduceEPKvPviRKNS_8DatatypeERKNS_2OpE
	.cfi_endproc
                                        # -- End function
	.section	.text._ZNK3MPI4Comm14Reduce_scatterEPKvPvPiRKNS_8DatatypeERKNS_2OpE,"axG",@progbits,_ZNK3MPI4Comm14Reduce_scatterEPKvPvPiRKNS_8DatatypeERKNS_2OpE,comdat
	.weak	_ZNK3MPI4Comm14Reduce_scatterEPKvPvPiRKNS_8DatatypeERKNS_2OpE # -- Begin function _ZNK3MPI4Comm14Reduce_scatterEPKvPvPiRKNS_8DatatypeERKNS_2OpE
	.p2align	4, 0x90
	.type	_ZNK3MPI4Comm14Reduce_scatterEPKvPvPiRKNS_8DatatypeERKNS_2OpE,@function
_ZNK3MPI4Comm14Reduce_scatterEPKvPvPiRKNS_8DatatypeERKNS_2OpE: # @_ZNK3MPI4Comm14Reduce_scatterEPKvPvPiRKNS_8DatatypeERKNS_2OpE
	.cfi_startproc
# %bb.0:
	pushq	%rbp
	.cfi_def_cfa_offset 16
	.cfi_offset %rbp, -16
	movq	%rsp, %rbp
	.cfi_def_cfa_register %rbp
	subq	$96, %rsp
	movq	%rdi, -8(%rbp)
	movq	%rsi, -16(%rbp)
	movq	%rdx, -24(%rbp)
	movq	%rcx, -32(%rbp)
	movq	%r8, -40(%rbp)
	movq	%r9, -48(%rbp)
	movq	-8(%rbp), %rax
	movq	%rax, -56(%rbp)                 # 8-byte Spill
	movq	-16(%rbp), %rax
	movq	%rax, -88(%rbp)                 # 8-byte Spill
	movq	-24(%rbp), %rax
	movq	%rax, -80(%rbp)                 # 8-byte Spill
	movq	-32(%rbp), %rax
	movq	%rax, -72(%rbp)                 # 8-byte Spill
	movq	-40(%rbp), %rdi
	callq	_ZNK3MPI8DatatypecvP15ompi_datatype_tEv
	movq	%rax, -64(%rbp)                 # 8-byte Spill
	movq	-48(%rbp), %rdi
	callq	_ZNK3MPI2OpcvP9ompi_op_tEv
	movq	-88(%rbp), %rdi                 # 8-byte Reload
	movq	-80(%rbp), %rsi                 # 8-byte Reload
	movq	-72(%rbp), %rdx                 # 8-byte Reload
	movq	-64(%rbp), %rcx                 # 8-byte Reload
	movq	%rax, %r8
	movq	-56(%rbp), %rax                 # 8-byte Reload
	movq	8(%rax), %r9
	callq	MPI_Reduce_scatter@PLT
	addq	$96, %rsp
	popq	%rbp
	.cfi_def_cfa %rsp, 8
	retq
.Lfunc_end137:
	.size	_ZNK3MPI4Comm14Reduce_scatterEPKvPvPiRKNS_8DatatypeERKNS_2OpE, .Lfunc_end137-_ZNK3MPI4Comm14Reduce_scatterEPKvPvPiRKNS_8DatatypeERKNS_2OpE
	.cfi_endproc
                                        # -- End function
	.section	.text._ZN3MPI4Comm10DisconnectEv,"axG",@progbits,_ZN3MPI4Comm10DisconnectEv,comdat
	.weak	_ZN3MPI4Comm10DisconnectEv      # -- Begin function _ZN3MPI4Comm10DisconnectEv
	.p2align	4, 0x90
	.type	_ZN3MPI4Comm10DisconnectEv,@function
_ZN3MPI4Comm10DisconnectEv:             # @_ZN3MPI4Comm10DisconnectEv
	.cfi_startproc
# %bb.0:
	pushq	%rbp
	.cfi_def_cfa_offset 16
	.cfi_offset %rbp, -16
	movq	%rsp, %rbp
	.cfi_def_cfa_register %rbp
	subq	$16, %rsp
	movq	%rdi, -8(%rbp)
	movq	-8(%rbp), %rdi
	addq	$8, %rdi
	callq	MPI_Comm_disconnect@PLT
	addq	$16, %rsp
	popq	%rbp
	.cfi_def_cfa %rsp, 8
	retq
.Lfunc_end138:
	.size	_ZN3MPI4Comm10DisconnectEv, .Lfunc_end138-_ZN3MPI4Comm10DisconnectEv
	.cfi_endproc
                                        # -- End function
	.section	.text._ZNK3MPI4Comm8Get_nameEPcRi,"axG",@progbits,_ZNK3MPI4Comm8Get_nameEPcRi,comdat
	.weak	_ZNK3MPI4Comm8Get_nameEPcRi     # -- Begin function _ZNK3MPI4Comm8Get_nameEPcRi
	.p2align	4, 0x90
	.type	_ZNK3MPI4Comm8Get_nameEPcRi,@function
_ZNK3MPI4Comm8Get_nameEPcRi:            # @_ZNK3MPI4Comm8Get_nameEPcRi
	.cfi_startproc
# %bb.0:
	pushq	%rbp
	.cfi_def_cfa_offset 16
	.cfi_offset %rbp, -16
	movq	%rsp, %rbp
	.cfi_def_cfa_register %rbp
	subq	$32, %rsp
	movq	%rdi, -8(%rbp)
	movq	%rsi, -16(%rbp)
	movq	%rdx, -24(%rbp)
	movq	-8(%rbp), %rax
	movq	8(%rax), %rdi
	movq	-16(%rbp), %rsi
	movq	-24(%rbp), %rdx
	callq	MPI_Comm_get_name@PLT
	addq	$32, %rsp
	popq	%rbp
	.cfi_def_cfa %rsp, 8
	retq
.Lfunc_end139:
	.size	_ZNK3MPI4Comm8Get_nameEPcRi, .Lfunc_end139-_ZNK3MPI4Comm8Get_nameEPcRi
	.cfi_endproc
                                        # -- End function
	.section	.text._ZN3MPI4Comm8Set_nameEPKc,"axG",@progbits,_ZN3MPI4Comm8Set_nameEPKc,comdat
	.weak	_ZN3MPI4Comm8Set_nameEPKc       # -- Begin function _ZN3MPI4Comm8Set_nameEPKc
	.p2align	4, 0x90
	.type	_ZN3MPI4Comm8Set_nameEPKc,@function
_ZN3MPI4Comm8Set_nameEPKc:              # @_ZN3MPI4Comm8Set_nameEPKc
	.cfi_startproc
# %bb.0:
	pushq	%rbp
	.cfi_def_cfa_offset 16
	.cfi_offset %rbp, -16
	movq	%rsp, %rbp
	.cfi_def_cfa_register %rbp
	subq	$16, %rsp
	movq	%rdi, -8(%rbp)
	movq	%rsi, -16(%rbp)
	movq	-8(%rbp), %rax
	movq	8(%rax), %rdi
	movq	-16(%rbp), %rsi
	callq	MPI_Comm_set_name@PLT
	addq	$16, %rsp
	popq	%rbp
	.cfi_def_cfa %rsp, 8
	retq
.Lfunc_end140:
	.size	_ZN3MPI4Comm8Set_nameEPKc, .Lfunc_end140-_ZN3MPI4Comm8Set_nameEPKc
	.cfi_endproc
                                        # -- End function
	.section	.text._ZNK3MPI4Comm12Get_topologyEv,"axG",@progbits,_ZNK3MPI4Comm12Get_topologyEv,comdat
	.weak	_ZNK3MPI4Comm12Get_topologyEv   # -- Begin function _ZNK3MPI4Comm12Get_topologyEv
	.p2align	4, 0x90
	.type	_ZNK3MPI4Comm12Get_topologyEv,@function
_ZNK3MPI4Comm12Get_topologyEv:          # @_ZNK3MPI4Comm12Get_topologyEv
	.cfi_startproc
# %bb.0:
	pushq	%rbp
	.cfi_def_cfa_offset 16
	.cfi_offset %rbp, -16
	movq	%rsp, %rbp
	.cfi_def_cfa_register %rbp
	subq	$16, %rsp
	movq	%rdi, -8(%rbp)
	movq	-8(%rbp), %rax
	movq	8(%rax), %rdi
	leaq	-12(%rbp), %rsi
	callq	MPI_Topo_test@PLT
	movl	-12(%rbp), %eax
	addq	$16, %rsp
	popq	%rbp
	.cfi_def_cfa %rsp, 8
	retq
.Lfunc_end141:
	.size	_ZNK3MPI4Comm12Get_topologyEv, .Lfunc_end141-_ZNK3MPI4Comm12Get_topologyEv
	.cfi_endproc
                                        # -- End function
	.section	.text._ZN3MPI4Comm5AbortEi,"axG",@progbits,_ZN3MPI4Comm5AbortEi,comdat
	.weak	_ZN3MPI4Comm5AbortEi            # -- Begin function _ZN3MPI4Comm5AbortEi
	.p2align	4, 0x90
	.type	_ZN3MPI4Comm5AbortEi,@function
_ZN3MPI4Comm5AbortEi:                   # @_ZN3MPI4Comm5AbortEi
	.cfi_startproc
# %bb.0:
	pushq	%rbp
	.cfi_def_cfa_offset 16
	.cfi_offset %rbp, -16
	movq	%rsp, %rbp
	.cfi_def_cfa_register %rbp
	subq	$16, %rsp
	movq	%rdi, -8(%rbp)
	movl	%esi, -12(%rbp)
	movq	-8(%rbp), %rax
	movq	8(%rax), %rdi
	movl	-12(%rbp), %esi
	callq	MPI_Abort@PLT
	addq	$16, %rsp
	popq	%rbp
	.cfi_def_cfa %rsp, 8
	retq
.Lfunc_end142:
	.size	_ZN3MPI4Comm5AbortEi, .Lfunc_end142-_ZN3MPI4Comm5AbortEi
	.cfi_endproc
                                        # -- End function
	.section	.text._ZN3MPI4Comm14Set_errhandlerERKNS_10ErrhandlerE,"axG",@progbits,_ZN3MPI4Comm14Set_errhandlerERKNS_10ErrhandlerE,comdat
	.weak	_ZN3MPI4Comm14Set_errhandlerERKNS_10ErrhandlerE # -- Begin function _ZN3MPI4Comm14Set_errhandlerERKNS_10ErrhandlerE
	.p2align	4, 0x90
	.type	_ZN3MPI4Comm14Set_errhandlerERKNS_10ErrhandlerE,@function
_ZN3MPI4Comm14Set_errhandlerERKNS_10ErrhandlerE: # @_ZN3MPI4Comm14Set_errhandlerERKNS_10ErrhandlerE
	.cfi_startproc
# %bb.0:
	pushq	%rbp
	.cfi_def_cfa_offset 16
	.cfi_offset %rbp, -16
	movq	%rsp, %rbp
	.cfi_def_cfa_register %rbp
	subq	$32, %rsp
	movq	%rdi, -8(%rbp)
	movq	%rsi, -16(%rbp)
	movq	-8(%rbp), %rax
	movq	8(%rax), %rax
	movq	%rax, -24(%rbp)                 # 8-byte Spill
	movq	-16(%rbp), %rdi
	callq	_ZNK3MPI10ErrhandlercvP17ompi_errhandler_tEv
	movq	-24(%rbp), %rdi                 # 8-byte Reload
	movq	%rax, %rsi
	callq	MPI_Comm_set_errhandler@PLT
	addq	$32, %rsp
	popq	%rbp
	.cfi_def_cfa %rsp, 8
	retq
.Lfunc_end143:
	.size	_ZN3MPI4Comm14Set_errhandlerERKNS_10ErrhandlerE, .Lfunc_end143-_ZN3MPI4Comm14Set_errhandlerERKNS_10ErrhandlerE
	.cfi_endproc
                                        # -- End function
	.section	.text._ZNK3MPI4Comm14Get_errhandlerEv,"axG",@progbits,_ZNK3MPI4Comm14Get_errhandlerEv,comdat
	.weak	_ZNK3MPI4Comm14Get_errhandlerEv # -- Begin function _ZNK3MPI4Comm14Get_errhandlerEv
	.p2align	4, 0x90
	.type	_ZNK3MPI4Comm14Get_errhandlerEv,@function
_ZNK3MPI4Comm14Get_errhandlerEv:        # @_ZNK3MPI4Comm14Get_errhandlerEv
	.cfi_startproc
# %bb.0:
	pushq	%rbp
	.cfi_def_cfa_offset 16
	.cfi_offset %rbp, -16
	movq	%rsp, %rbp
	.cfi_def_cfa_register %rbp
	subq	$48, %rsp
	movq	%rdi, -40(%rbp)                 # 8-byte Spill
	movq	%rdi, %rax
	movq	%rax, -32(%rbp)                 # 8-byte Spill
	movq	%rdi, -8(%rbp)
	movq	%rsi, -16(%rbp)
	movq	-16(%rbp), %rax
	movq	8(%rax), %rdi
	leaq	-24(%rbp), %rsi
	callq	MPI_Comm_get_errhandler@PLT
	movq	-40(%rbp), %rdi                 # 8-byte Reload
	movq	-24(%rbp), %rsi
	callq	_ZN3MPI10ErrhandlerC2EP17ompi_errhandler_t
	movq	-32(%rbp), %rax                 # 8-byte Reload
	addq	$48, %rsp
	popq	%rbp
	.cfi_def_cfa %rsp, 8
	retq
.Lfunc_end144:
	.size	_ZNK3MPI4Comm14Get_errhandlerEv, .Lfunc_end144-_ZNK3MPI4Comm14Get_errhandlerEv
	.cfi_endproc
                                        # -- End function
	.section	.text._ZNK3MPI4Comm8Set_attrEiPKv,"axG",@progbits,_ZNK3MPI4Comm8Set_attrEiPKv,comdat
	.weak	_ZNK3MPI4Comm8Set_attrEiPKv     # -- Begin function _ZNK3MPI4Comm8Set_attrEiPKv
	.p2align	4, 0x90
	.type	_ZNK3MPI4Comm8Set_attrEiPKv,@function
_ZNK3MPI4Comm8Set_attrEiPKv:            # @_ZNK3MPI4Comm8Set_attrEiPKv
	.cfi_startproc
# %bb.0:
	pushq	%rbp
	.cfi_def_cfa_offset 16
	.cfi_offset %rbp, -16
	movq	%rsp, %rbp
	.cfi_def_cfa_register %rbp
	subq	$32, %rsp
	movq	%rdi, -8(%rbp)
	movl	%esi, -12(%rbp)
	movq	%rdx, -24(%rbp)
	movq	-8(%rbp), %rax
	movq	8(%rax), %rdi
	movl	-12(%rbp), %esi
	movq	-24(%rbp), %rdx
	callq	MPI_Comm_set_attr@PLT
	addq	$32, %rsp
	popq	%rbp
	.cfi_def_cfa %rsp, 8
	retq
.Lfunc_end145:
	.size	_ZNK3MPI4Comm8Set_attrEiPKv, .Lfunc_end145-_ZNK3MPI4Comm8Set_attrEiPKv
	.cfi_endproc
                                        # -- End function
	.section	.text._ZNK3MPI4Comm8Get_attrEiPv,"axG",@progbits,_ZNK3MPI4Comm8Get_attrEiPv,comdat
	.weak	_ZNK3MPI4Comm8Get_attrEiPv      # -- Begin function _ZNK3MPI4Comm8Get_attrEiPv
	.p2align	4, 0x90
	.type	_ZNK3MPI4Comm8Get_attrEiPv,@function
_ZNK3MPI4Comm8Get_attrEiPv:             # @_ZNK3MPI4Comm8Get_attrEiPv
	.cfi_startproc
# %bb.0:
	pushq	%rbp
	.cfi_def_cfa_offset 16
	.cfi_offset %rbp, -16
	movq	%rsp, %rbp
	.cfi_def_cfa_register %rbp
	subq	$32, %rsp
	movq	%rdi, -8(%rbp)
	movl	%esi, -12(%rbp)
	movq	%rdx, -24(%rbp)
	movq	-8(%rbp), %rax
	movq	8(%rax), %rdi
	movl	-12(%rbp), %esi
	movq	-24(%rbp), %rdx
	leaq	-28(%rbp), %rcx
	callq	MPI_Comm_get_attr@PLT
	cmpl	$0, -28(%rbp)
	setne	%al
	andb	$1, %al
	movzbl	%al, %eax
	addq	$32, %rsp
	popq	%rbp
	.cfi_def_cfa %rsp, 8
	retq
.Lfunc_end146:
	.size	_ZNK3MPI4Comm8Get_attrEiPv, .Lfunc_end146-_ZNK3MPI4Comm8Get_attrEiPv
	.cfi_endproc
                                        # -- End function
	.section	.text._ZN3MPI4Comm11Delete_attrEi,"axG",@progbits,_ZN3MPI4Comm11Delete_attrEi,comdat
	.weak	_ZN3MPI4Comm11Delete_attrEi     # -- Begin function _ZN3MPI4Comm11Delete_attrEi
	.p2align	4, 0x90
	.type	_ZN3MPI4Comm11Delete_attrEi,@function
_ZN3MPI4Comm11Delete_attrEi:            # @_ZN3MPI4Comm11Delete_attrEi
	.cfi_startproc
# %bb.0:
	pushq	%rbp
	.cfi_def_cfa_offset 16
	.cfi_offset %rbp, -16
	movq	%rsp, %rbp
	.cfi_def_cfa_register %rbp
	subq	$16, %rsp
	movq	%rdi, -8(%rbp)
	movl	%esi, -12(%rbp)
	movq	-8(%rbp), %rax
	movq	8(%rax), %rdi
	movl	-12(%rbp), %esi
	callq	MPI_Comm_delete_attr@PLT
	addq	$16, %rsp
	popq	%rbp
	.cfi_def_cfa %rsp, 8
	retq
.Lfunc_end147:
	.size	_ZN3MPI4Comm11Delete_attrEi, .Lfunc_end147-_ZN3MPI4Comm11Delete_attrEi
	.cfi_endproc
                                        # -- End function
	.section	.text._ZN3MPI3WinD2Ev,"axG",@progbits,_ZN3MPI3WinD2Ev,comdat
	.weak	_ZN3MPI3WinD2Ev                 # -- Begin function _ZN3MPI3WinD2Ev
	.p2align	4, 0x90
	.type	_ZN3MPI3WinD2Ev,@function
_ZN3MPI3WinD2Ev:                        # @_ZN3MPI3WinD2Ev
	.cfi_startproc
# %bb.0:
	pushq	%rbp
	.cfi_def_cfa_offset 16
	.cfi_offset %rbp, -16
	movq	%rsp, %rbp
	.cfi_def_cfa_register %rbp
	movq	%rdi, -8(%rbp)
	popq	%rbp
	.cfi_def_cfa %rsp, 8
	retq
.Lfunc_end148:
	.size	_ZN3MPI3WinD2Ev, .Lfunc_end148-_ZN3MPI3WinD2Ev
	.cfi_endproc
                                        # -- End function
	.section	.text._ZN3MPI3WinD0Ev,"axG",@progbits,_ZN3MPI3WinD0Ev,comdat
	.weak	_ZN3MPI3WinD0Ev                 # -- Begin function _ZN3MPI3WinD0Ev
	.p2align	4, 0x90
	.type	_ZN3MPI3WinD0Ev,@function
_ZN3MPI3WinD0Ev:                        # @_ZN3MPI3WinD0Ev
	.cfi_startproc
# %bb.0:
	pushq	%rbp
	.cfi_def_cfa_offset 16
	.cfi_offset %rbp, -16
	movq	%rsp, %rbp
	.cfi_def_cfa_register %rbp
	subq	$16, %rsp
	movq	%rdi, -8(%rbp)
	movq	-8(%rbp), %rdi
	movq	%rdi, -16(%rbp)                 # 8-byte Spill
	callq	_ZN3MPI3WinD2Ev
	movq	-16(%rbp), %rdi                 # 8-byte Reload
	callq	_ZdlPv@PLT
	addq	$16, %rsp
	popq	%rbp
	.cfi_def_cfa %rsp, 8
	retq
.Lfunc_end149:
	.size	_ZN3MPI3WinD0Ev, .Lfunc_end149-_ZN3MPI3WinD0Ev
	.cfi_endproc
                                        # -- End function
	.section	.text._ZNK3MPI3Win14Get_errhandlerEv,"axG",@progbits,_ZNK3MPI3Win14Get_errhandlerEv,comdat
	.weak	_ZNK3MPI3Win14Get_errhandlerEv  # -- Begin function _ZNK3MPI3Win14Get_errhandlerEv
	.p2align	4, 0x90
	.type	_ZNK3MPI3Win14Get_errhandlerEv,@function
_ZNK3MPI3Win14Get_errhandlerEv:         # @_ZNK3MPI3Win14Get_errhandlerEv
	.cfi_startproc
# %bb.0:
	pushq	%rbp
	.cfi_def_cfa_offset 16
	.cfi_offset %rbp, -16
	movq	%rsp, %rbp
	.cfi_def_cfa_register %rbp
	subq	$48, %rsp
	movq	%rdi, -40(%rbp)                 # 8-byte Spill
	movq	%rdi, %rax
	movq	%rax, -32(%rbp)                 # 8-byte Spill
	movq	%rdi, -8(%rbp)
	movq	%rsi, -16(%rbp)
	movq	-16(%rbp), %rax
	movq	8(%rax), %rdi
	leaq	-24(%rbp), %rsi
	callq	MPI_Win_get_errhandler@PLT
	movq	-40(%rbp), %rdi                 # 8-byte Reload
	movq	-24(%rbp), %rsi
	callq	_ZN3MPI10ErrhandlerC2EP17ompi_errhandler_t
	movq	-32(%rbp), %rax                 # 8-byte Reload
	addq	$48, %rsp
	popq	%rbp
	.cfi_def_cfa %rsp, 8
	retq
.Lfunc_end150:
	.size	_ZNK3MPI3Win14Get_errhandlerEv, .Lfunc_end150-_ZNK3MPI3Win14Get_errhandlerEv
	.cfi_endproc
                                        # -- End function
	.section	.text._ZNK3MPI3Win10AccumulateEPKviRKNS_8DatatypeEiliS5_RKNS_2OpE,"axG",@progbits,_ZNK3MPI3Win10AccumulateEPKviRKNS_8DatatypeEiliS5_RKNS_2OpE,comdat
	.weak	_ZNK3MPI3Win10AccumulateEPKviRKNS_8DatatypeEiliS5_RKNS_2OpE # -- Begin function _ZNK3MPI3Win10AccumulateEPKviRKNS_8DatatypeEiliS5_RKNS_2OpE
	.p2align	4, 0x90
	.type	_ZNK3MPI3Win10AccumulateEPKviRKNS_8DatatypeEiliS5_RKNS_2OpE,@function
_ZNK3MPI3Win10AccumulateEPKviRKNS_8DatatypeEiliS5_RKNS_2OpE: # @_ZNK3MPI3Win10AccumulateEPKviRKNS_8DatatypeEiliS5_RKNS_2OpE
	.cfi_startproc
# %bb.0:
	pushq	%rbp
	.cfi_def_cfa_offset 16
	.cfi_offset %rbp, -16
	movq	%rsp, %rbp
	.cfi_def_cfa_register %rbp
	subq	$144, %rsp
	movq	32(%rbp), %rax
	movq	24(%rbp), %rax
	movl	16(%rbp), %eax
	movq	%rdi, -8(%rbp)
	movq	%rsi, -16(%rbp)
	movl	%edx, -20(%rbp)
	movq	%rcx, -32(%rbp)
	movl	%r8d, -36(%rbp)
	movq	%r9, -48(%rbp)
	movq	-8(%rbp), %rax
	movq	%rax, -56(%rbp)                 # 8-byte Spill
	movq	-16(%rbp), %rax
	movq	%rax, -112(%rbp)                # 8-byte Spill
	movl	-20(%rbp), %eax
	movl	%eax, -100(%rbp)                # 4-byte Spill
	movq	-32(%rbp), %rdi
	callq	_ZNK3MPI8DatatypecvP15ompi_datatype_tEv
	movq	%rax, -96(%rbp)                 # 8-byte Spill
	movl	-36(%rbp), %eax
	movl	%eax, -84(%rbp)                 # 4-byte Spill
	movq	-48(%rbp), %rax
	movq	%rax, -80(%rbp)                 # 8-byte Spill
	movl	16(%rbp), %eax
	movl	%eax, -68(%rbp)                 # 4-byte Spill
	movq	24(%rbp), %rdi
	callq	_ZNK3MPI8DatatypecvP15ompi_datatype_tEv
	movq	%rax, -64(%rbp)                 # 8-byte Spill
	movq	32(%rbp), %rdi
	callq	_ZNK3MPI2OpcvP9ompi_op_tEv
	movq	-112(%rbp), %rdi                # 8-byte Reload
	movl	-100(%rbp), %esi                # 4-byte Reload
	movq	-96(%rbp), %rdx                 # 8-byte Reload
	movl	-84(%rbp), %ecx                 # 4-byte Reload
	movq	-80(%rbp), %r8                  # 8-byte Reload
	movl	-68(%rbp), %r9d                 # 4-byte Reload
	movq	-64(%rbp), %r11                 # 8-byte Reload
	movq	%rax, %r10
	movq	-56(%rbp), %rax                 # 8-byte Reload
	movq	8(%rax), %rax
	movq	%r11, (%rsp)
	movq	%r10, 8(%rsp)
	movq	%rax, 16(%rsp)
	callq	MPI_Accumulate@PLT
	addq	$144, %rsp
	popq	%rbp
	.cfi_def_cfa %rsp, 8
	retq
.Lfunc_end151:
	.size	_ZNK3MPI3Win10AccumulateEPKviRKNS_8DatatypeEiliS5_RKNS_2OpE, .Lfunc_end151-_ZNK3MPI3Win10AccumulateEPKviRKNS_8DatatypeEiliS5_RKNS_2OpE
	.cfi_endproc
                                        # -- End function
	.section	.text._ZNK3MPI3Win8CompleteEv,"axG",@progbits,_ZNK3MPI3Win8CompleteEv,comdat
	.weak	_ZNK3MPI3Win8CompleteEv         # -- Begin function _ZNK3MPI3Win8CompleteEv
	.p2align	4, 0x90
	.type	_ZNK3MPI3Win8CompleteEv,@function
_ZNK3MPI3Win8CompleteEv:                # @_ZNK3MPI3Win8CompleteEv
	.cfi_startproc
# %bb.0:
	pushq	%rbp
	.cfi_def_cfa_offset 16
	.cfi_offset %rbp, -16
	movq	%rsp, %rbp
	.cfi_def_cfa_register %rbp
	subq	$16, %rsp
	movq	%rdi, -8(%rbp)
	movq	-8(%rbp), %rax
	movq	8(%rax), %rdi
	callq	MPI_Win_complete@PLT
	addq	$16, %rsp
	popq	%rbp
	.cfi_def_cfa %rsp, 8
	retq
.Lfunc_end152:
	.size	_ZNK3MPI3Win8CompleteEv, .Lfunc_end152-_ZNK3MPI3Win8CompleteEv
	.cfi_endproc
                                        # -- End function
	.section	.text._ZNK3MPI3Win5FenceEi,"axG",@progbits,_ZNK3MPI3Win5FenceEi,comdat
	.weak	_ZNK3MPI3Win5FenceEi            # -- Begin function _ZNK3MPI3Win5FenceEi
	.p2align	4, 0x90
	.type	_ZNK3MPI3Win5FenceEi,@function
_ZNK3MPI3Win5FenceEi:                   # @_ZNK3MPI3Win5FenceEi
	.cfi_startproc
# %bb.0:
	pushq	%rbp
	.cfi_def_cfa_offset 16
	.cfi_offset %rbp, -16
	movq	%rsp, %rbp
	.cfi_def_cfa_register %rbp
	subq	$16, %rsp
	movq	%rdi, -8(%rbp)
	movl	%esi, -12(%rbp)
	movq	-8(%rbp), %rax
	movl	-12(%rbp), %edi
	movq	8(%rax), %rsi
	callq	MPI_Win_fence@PLT
	addq	$16, %rsp
	popq	%rbp
	.cfi_def_cfa %rsp, 8
	retq
.Lfunc_end153:
	.size	_ZNK3MPI3Win5FenceEi, .Lfunc_end153-_ZNK3MPI3Win5FenceEi
	.cfi_endproc
                                        # -- End function
	.section	.text._ZNK3MPI3Win3GetEPKviRKNS_8DatatypeEiliS5_,"axG",@progbits,_ZNK3MPI3Win3GetEPKviRKNS_8DatatypeEiliS5_,comdat
	.weak	_ZNK3MPI3Win3GetEPKviRKNS_8DatatypeEiliS5_ # -- Begin function _ZNK3MPI3Win3GetEPKviRKNS_8DatatypeEiliS5_
	.p2align	4, 0x90
	.type	_ZNK3MPI3Win3GetEPKviRKNS_8DatatypeEiliS5_,@function
_ZNK3MPI3Win3GetEPKviRKNS_8DatatypeEiliS5_: # @_ZNK3MPI3Win3GetEPKviRKNS_8DatatypeEiliS5_
	.cfi_startproc
# %bb.0:
	pushq	%rbp
	.cfi_def_cfa_offset 16
	.cfi_offset %rbp, -16
	movq	%rsp, %rbp
	.cfi_def_cfa_register %rbp
	subq	$128, %rsp
	movq	24(%rbp), %rax
	movl	16(%rbp), %eax
	movq	%rdi, -8(%rbp)
	movq	%rsi, -16(%rbp)
	movl	%edx, -20(%rbp)
	movq	%rcx, -32(%rbp)
	movl	%r8d, -36(%rbp)
	movq	%r9, -48(%rbp)
	movq	-8(%rbp), %rax
	movq	%rax, -56(%rbp)                 # 8-byte Spill
	movq	-16(%rbp), %rax
	movq	%rax, -104(%rbp)                # 8-byte Spill
	movl	-20(%rbp), %eax
	movl	%eax, -92(%rbp)                 # 4-byte Spill
	movq	-32(%rbp), %rdi
	callq	_ZNK3MPI8DatatypecvP15ompi_datatype_tEv
	movq	%rax, -88(%rbp)                 # 8-byte Spill
	movl	-36(%rbp), %eax
	movl	%eax, -76(%rbp)                 # 4-byte Spill
	movq	-48(%rbp), %rax
	movq	%rax, -72(%rbp)                 # 8-byte Spill
	movl	16(%rbp), %eax
	movl	%eax, -60(%rbp)                 # 4-byte Spill
	movq	24(%rbp), %rdi
	callq	_ZNK3MPI8DatatypecvP15ompi_datatype_tEv
	movq	-104(%rbp), %rdi                # 8-byte Reload
	movl	-92(%rbp), %esi                 # 4-byte Reload
	movq	-88(%rbp), %rdx                 # 8-byte Reload
	movl	-76(%rbp), %ecx                 # 4-byte Reload
	movq	-72(%rbp), %r8                  # 8-byte Reload
	movl	-60(%rbp), %r9d                 # 4-byte Reload
	movq	%rax, %r10
	movq	-56(%rbp), %rax                 # 8-byte Reload
	movq	8(%rax), %rax
	movq	%r10, (%rsp)
	movq	%rax, 8(%rsp)
	callq	MPI_Get@PLT
	addq	$128, %rsp
	popq	%rbp
	.cfi_def_cfa %rsp, 8
	retq
.Lfunc_end154:
	.size	_ZNK3MPI3Win3GetEPKviRKNS_8DatatypeEiliS5_, .Lfunc_end154-_ZNK3MPI3Win3GetEPKviRKNS_8DatatypeEiliS5_
	.cfi_endproc
                                        # -- End function
	.section	.text._ZNK3MPI3Win9Get_groupEv,"axG",@progbits,_ZNK3MPI3Win9Get_groupEv,comdat
	.weak	_ZNK3MPI3Win9Get_groupEv        # -- Begin function _ZNK3MPI3Win9Get_groupEv
	.p2align	4, 0x90
	.type	_ZNK3MPI3Win9Get_groupEv,@function
_ZNK3MPI3Win9Get_groupEv:               # @_ZNK3MPI3Win9Get_groupEv
	.cfi_startproc
# %bb.0:
	pushq	%rbp
	.cfi_def_cfa_offset 16
	.cfi_offset %rbp, -16
	movq	%rsp, %rbp
	.cfi_def_cfa_register %rbp
	subq	$48, %rsp
	movq	%rdi, -40(%rbp)                 # 8-byte Spill
	movq	%rdi, %rax
	movq	%rax, -32(%rbp)                 # 8-byte Spill
	movq	%rdi, -8(%rbp)
	movq	%rsi, -16(%rbp)
	movq	-16(%rbp), %rax
	movq	8(%rax), %rdi
	leaq	-24(%rbp), %rsi
	callq	MPI_Win_get_group@PLT
	movq	-40(%rbp), %rdi                 # 8-byte Reload
	movq	-24(%rbp), %rsi
	callq	_ZN3MPI5GroupC2EP12ompi_group_t
	movq	-32(%rbp), %rax                 # 8-byte Reload
	addq	$48, %rsp
	popq	%rbp
	.cfi_def_cfa %rsp, 8
	retq
.Lfunc_end155:
	.size	_ZNK3MPI3Win9Get_groupEv, .Lfunc_end155-_ZNK3MPI3Win9Get_groupEv
	.cfi_endproc
                                        # -- End function
	.section	.text._ZNK3MPI3Win4LockEiii,"axG",@progbits,_ZNK3MPI3Win4LockEiii,comdat
	.weak	_ZNK3MPI3Win4LockEiii           # -- Begin function _ZNK3MPI3Win4LockEiii
	.p2align	4, 0x90
	.type	_ZNK3MPI3Win4LockEiii,@function
_ZNK3MPI3Win4LockEiii:                  # @_ZNK3MPI3Win4LockEiii
	.cfi_startproc
# %bb.0:
	pushq	%rbp
	.cfi_def_cfa_offset 16
	.cfi_offset %rbp, -16
	movq	%rsp, %rbp
	.cfi_def_cfa_register %rbp
	subq	$32, %rsp
	movq	%rdi, -8(%rbp)
	movl	%esi, -12(%rbp)
	movl	%edx, -16(%rbp)
	movl	%ecx, -20(%rbp)
	movq	-8(%rbp), %rax
	movl	-12(%rbp), %edi
	movl	-16(%rbp), %esi
	movl	-20(%rbp), %edx
	movq	8(%rax), %rcx
	callq	MPI_Win_lock@PLT
	addq	$32, %rsp
	popq	%rbp
	.cfi_def_cfa %rsp, 8
	retq
.Lfunc_end156:
	.size	_ZNK3MPI3Win4LockEiii, .Lfunc_end156-_ZNK3MPI3Win4LockEiii
	.cfi_endproc
                                        # -- End function
	.section	.text._ZNK3MPI3Win4PostERKNS_5GroupEi,"axG",@progbits,_ZNK3MPI3Win4PostERKNS_5GroupEi,comdat
	.weak	_ZNK3MPI3Win4PostERKNS_5GroupEi # -- Begin function _ZNK3MPI3Win4PostERKNS_5GroupEi
	.p2align	4, 0x90
	.type	_ZNK3MPI3Win4PostERKNS_5GroupEi,@function
_ZNK3MPI3Win4PostERKNS_5GroupEi:        # @_ZNK3MPI3Win4PostERKNS_5GroupEi
	.cfi_startproc
# %bb.0:
	pushq	%rbp
	.cfi_def_cfa_offset 16
	.cfi_offset %rbp, -16
	movq	%rsp, %rbp
	.cfi_def_cfa_register %rbp
	subq	$32, %rsp
	movq	%rdi, -8(%rbp)
	movq	%rsi, -16(%rbp)
	movl	%edx, -20(%rbp)
	movq	-8(%rbp), %rax
	movq	%rax, -32(%rbp)                 # 8-byte Spill
	movq	-16(%rbp), %rdi
	callq	_ZNK3MPI5GroupcvP12ompi_group_tEv
	movq	%rax, %rdi
	movq	-32(%rbp), %rax                 # 8-byte Reload
	movl	-20(%rbp), %esi
	movq	8(%rax), %rdx
	callq	MPI_Win_post@PLT
	addq	$32, %rsp
	popq	%rbp
	.cfi_def_cfa %rsp, 8
	retq
.Lfunc_end157:
	.size	_ZNK3MPI3Win4PostERKNS_5GroupEi, .Lfunc_end157-_ZNK3MPI3Win4PostERKNS_5GroupEi
	.cfi_endproc
                                        # -- End function
	.section	.text._ZNK3MPI3Win3PutEPKviRKNS_8DatatypeEiliS5_,"axG",@progbits,_ZNK3MPI3Win3PutEPKviRKNS_8DatatypeEiliS5_,comdat
	.weak	_ZNK3MPI3Win3PutEPKviRKNS_8DatatypeEiliS5_ # -- Begin function _ZNK3MPI3Win3PutEPKviRKNS_8DatatypeEiliS5_
	.p2align	4, 0x90
	.type	_ZNK3MPI3Win3PutEPKviRKNS_8DatatypeEiliS5_,@function
_ZNK3MPI3Win3PutEPKviRKNS_8DatatypeEiliS5_: # @_ZNK3MPI3Win3PutEPKviRKNS_8DatatypeEiliS5_
	.cfi_startproc
# %bb.0:
	pushq	%rbp
	.cfi_def_cfa_offset 16
	.cfi_offset %rbp, -16
	movq	%rsp, %rbp
	.cfi_def_cfa_register %rbp
	subq	$128, %rsp
	movq	24(%rbp), %rax
	movl	16(%rbp), %eax
	movq	%rdi, -8(%rbp)
	movq	%rsi, -16(%rbp)
	movl	%edx, -20(%rbp)
	movq	%rcx, -32(%rbp)
	movl	%r8d, -36(%rbp)
	movq	%r9, -48(%rbp)
	movq	-8(%rbp), %rax
	movq	%rax, -56(%rbp)                 # 8-byte Spill
	movq	-16(%rbp), %rax
	movq	%rax, -104(%rbp)                # 8-byte Spill
	movl	-20(%rbp), %eax
	movl	%eax, -92(%rbp)                 # 4-byte Spill
	movq	-32(%rbp), %rdi
	callq	_ZNK3MPI8DatatypecvP15ompi_datatype_tEv
	movq	%rax, -88(%rbp)                 # 8-byte Spill
	movl	-36(%rbp), %eax
	movl	%eax, -76(%rbp)                 # 4-byte Spill
	movq	-48(%rbp), %rax
	movq	%rax, -72(%rbp)                 # 8-byte Spill
	movl	16(%rbp), %eax
	movl	%eax, -60(%rbp)                 # 4-byte Spill
	movq	24(%rbp), %rdi
	callq	_ZNK3MPI8DatatypecvP15ompi_datatype_tEv
	movq	-104(%rbp), %rdi                # 8-byte Reload
	movl	-92(%rbp), %esi                 # 4-byte Reload
	movq	-88(%rbp), %rdx                 # 8-byte Reload
	movl	-76(%rbp), %ecx                 # 4-byte Reload
	movq	-72(%rbp), %r8                  # 8-byte Reload
	movl	-60(%rbp), %r9d                 # 4-byte Reload
	movq	%rax, %r10
	movq	-56(%rbp), %rax                 # 8-byte Reload
	movq	8(%rax), %rax
	movq	%r10, (%rsp)
	movq	%rax, 8(%rsp)
	callq	MPI_Put@PLT
	addq	$128, %rsp
	popq	%rbp
	.cfi_def_cfa %rsp, 8
	retq
.Lfunc_end158:
	.size	_ZNK3MPI3Win3PutEPKviRKNS_8DatatypeEiliS5_, .Lfunc_end158-_ZNK3MPI3Win3PutEPKviRKNS_8DatatypeEiliS5_
	.cfi_endproc
                                        # -- End function
	.section	.text._ZNK3MPI3Win5StartERKNS_5GroupEi,"axG",@progbits,_ZNK3MPI3Win5StartERKNS_5GroupEi,comdat
	.weak	_ZNK3MPI3Win5StartERKNS_5GroupEi # -- Begin function _ZNK3MPI3Win5StartERKNS_5GroupEi
	.p2align	4, 0x90
	.type	_ZNK3MPI3Win5StartERKNS_5GroupEi,@function
_ZNK3MPI3Win5StartERKNS_5GroupEi:       # @_ZNK3MPI3Win5StartERKNS_5GroupEi
	.cfi_startproc
# %bb.0:
	pushq	%rbp
	.cfi_def_cfa_offset 16
	.cfi_offset %rbp, -16
	movq	%rsp, %rbp
	.cfi_def_cfa_register %rbp
	subq	$32, %rsp
	movq	%rdi, -8(%rbp)
	movq	%rsi, -16(%rbp)
	movl	%edx, -20(%rbp)
	movq	-8(%rbp), %rax
	movq	%rax, -32(%rbp)                 # 8-byte Spill
	movq	-16(%rbp), %rdi
	callq	_ZNK3MPI5GroupcvP12ompi_group_tEv
	movq	%rax, %rdi
	movq	-32(%rbp), %rax                 # 8-byte Reload
	movl	-20(%rbp), %esi
	movq	8(%rax), %rdx
	callq	MPI_Win_start@PLT
	addq	$32, %rsp
	popq	%rbp
	.cfi_def_cfa %rsp, 8
	retq
.Lfunc_end159:
	.size	_ZNK3MPI3Win5StartERKNS_5GroupEi, .Lfunc_end159-_ZNK3MPI3Win5StartERKNS_5GroupEi
	.cfi_endproc
                                        # -- End function
	.section	.text._ZNK3MPI3Win4TestEv,"axG",@progbits,_ZNK3MPI3Win4TestEv,comdat
	.weak	_ZNK3MPI3Win4TestEv             # -- Begin function _ZNK3MPI3Win4TestEv
	.p2align	4, 0x90
	.type	_ZNK3MPI3Win4TestEv,@function
_ZNK3MPI3Win4TestEv:                    # @_ZNK3MPI3Win4TestEv
	.cfi_startproc
# %bb.0:
	pushq	%rbp
	.cfi_def_cfa_offset 16
	.cfi_offset %rbp, -16
	movq	%rsp, %rbp
	.cfi_def_cfa_register %rbp
	subq	$16, %rsp
	movq	%rdi, -8(%rbp)
	movq	-8(%rbp), %rax
	movq	8(%rax), %rdi
	leaq	-12(%rbp), %rsi
	callq	MPI_Win_test@PLT
	cmpl	$0, -12(%rbp)
	setne	%al
	andb	$1, %al
	movzbl	%al, %eax
	addq	$16, %rsp
	popq	%rbp
	.cfi_def_cfa %rsp, 8
	retq
.Lfunc_end160:
	.size	_ZNK3MPI3Win4TestEv, .Lfunc_end160-_ZNK3MPI3Win4TestEv
	.cfi_endproc
                                        # -- End function
	.section	.text._ZNK3MPI3Win6UnlockEi,"axG",@progbits,_ZNK3MPI3Win6UnlockEi,comdat
	.weak	_ZNK3MPI3Win6UnlockEi           # -- Begin function _ZNK3MPI3Win6UnlockEi
	.p2align	4, 0x90
	.type	_ZNK3MPI3Win6UnlockEi,@function
_ZNK3MPI3Win6UnlockEi:                  # @_ZNK3MPI3Win6UnlockEi
	.cfi_startproc
# %bb.0:
	pushq	%rbp
	.cfi_def_cfa_offset 16
	.cfi_offset %rbp, -16
	movq	%rsp, %rbp
	.cfi_def_cfa_register %rbp
	subq	$16, %rsp
	movq	%rdi, -8(%rbp)
	movl	%esi, -12(%rbp)
	movq	-8(%rbp), %rax
	movl	-12(%rbp), %edi
	movq	8(%rax), %rsi
	callq	MPI_Win_unlock@PLT
	addq	$16, %rsp
	popq	%rbp
	.cfi_def_cfa %rsp, 8
	retq
.Lfunc_end161:
	.size	_ZNK3MPI3Win6UnlockEi, .Lfunc_end161-_ZNK3MPI3Win6UnlockEi
	.cfi_endproc
                                        # -- End function
	.section	.text._ZNK3MPI3Win4WaitEv,"axG",@progbits,_ZNK3MPI3Win4WaitEv,comdat
	.weak	_ZNK3MPI3Win4WaitEv             # -- Begin function _ZNK3MPI3Win4WaitEv
	.p2align	4, 0x90
	.type	_ZNK3MPI3Win4WaitEv,@function
_ZNK3MPI3Win4WaitEv:                    # @_ZNK3MPI3Win4WaitEv
	.cfi_startproc
# %bb.0:
	pushq	%rbp
	.cfi_def_cfa_offset 16
	.cfi_offset %rbp, -16
	movq	%rsp, %rbp
	.cfi_def_cfa_register %rbp
	subq	$16, %rsp
	movq	%rdi, -8(%rbp)
	movq	-8(%rbp), %rax
	movq	8(%rax), %rdi
	callq	MPI_Win_wait@PLT
	addq	$16, %rsp
	popq	%rbp
	.cfi_def_cfa %rsp, 8
	retq
.Lfunc_end162:
	.size	_ZNK3MPI3Win4WaitEv, .Lfunc_end162-_ZNK3MPI3Win4WaitEv
	.cfi_endproc
                                        # -- End function
	.section	.text._ZNK3MPI3Win15Call_errhandlerEi,"axG",@progbits,_ZNK3MPI3Win15Call_errhandlerEi,comdat
	.weak	_ZNK3MPI3Win15Call_errhandlerEi # -- Begin function _ZNK3MPI3Win15Call_errhandlerEi
	.p2align	4, 0x90
	.type	_ZNK3MPI3Win15Call_errhandlerEi,@function
_ZNK3MPI3Win15Call_errhandlerEi:        # @_ZNK3MPI3Win15Call_errhandlerEi
	.cfi_startproc
# %bb.0:
	pushq	%rbp
	.cfi_def_cfa_offset 16
	.cfi_offset %rbp, -16
	movq	%rsp, %rbp
	.cfi_def_cfa_register %rbp
	subq	$16, %rsp
	movq	%rdi, -8(%rbp)
	movl	%esi, -12(%rbp)
	movq	-8(%rbp), %rax
	movq	8(%rax), %rdi
	movl	-12(%rbp), %esi
	callq	MPI_Win_call_errhandler@PLT
	addq	$16, %rsp
	popq	%rbp
	.cfi_def_cfa %rsp, 8
	retq
.Lfunc_end163:
	.size	_ZNK3MPI3Win15Call_errhandlerEi, .Lfunc_end163-_ZNK3MPI3Win15Call_errhandlerEi
	.cfi_endproc
                                        # -- End function
	.section	.text._ZN3MPI3Win11Delete_attrEi,"axG",@progbits,_ZN3MPI3Win11Delete_attrEi,comdat
	.weak	_ZN3MPI3Win11Delete_attrEi      # -- Begin function _ZN3MPI3Win11Delete_attrEi
	.p2align	4, 0x90
	.type	_ZN3MPI3Win11Delete_attrEi,@function
_ZN3MPI3Win11Delete_attrEi:             # @_ZN3MPI3Win11Delete_attrEi
	.cfi_startproc
# %bb.0:
	pushq	%rbp
	.cfi_def_cfa_offset 16
	.cfi_offset %rbp, -16
	movq	%rsp, %rbp
	.cfi_def_cfa_register %rbp
	subq	$16, %rsp
	movq	%rdi, -8(%rbp)
	movl	%esi, -12(%rbp)
	movq	-8(%rbp), %rax
	movq	8(%rax), %rdi
	movl	-12(%rbp), %esi
	callq	MPI_Win_delete_attr@PLT
	addq	$16, %rsp
	popq	%rbp
	.cfi_def_cfa %rsp, 8
	retq
.Lfunc_end164:
	.size	_ZN3MPI3Win11Delete_attrEi, .Lfunc_end164-_ZN3MPI3Win11Delete_attrEi
	.cfi_endproc
                                        # -- End function
	.section	.text._ZNK3MPI3Win8Get_nameEPcRi,"axG",@progbits,_ZNK3MPI3Win8Get_nameEPcRi,comdat
	.weak	_ZNK3MPI3Win8Get_nameEPcRi      # -- Begin function _ZNK3MPI3Win8Get_nameEPcRi
	.p2align	4, 0x90
	.type	_ZNK3MPI3Win8Get_nameEPcRi,@function
_ZNK3MPI3Win8Get_nameEPcRi:             # @_ZNK3MPI3Win8Get_nameEPcRi
	.cfi_startproc
# %bb.0:
	pushq	%rbp
	.cfi_def_cfa_offset 16
	.cfi_offset %rbp, -16
	movq	%rsp, %rbp
	.cfi_def_cfa_register %rbp
	subq	$32, %rsp
	movq	%rdi, -8(%rbp)
	movq	%rsi, -16(%rbp)
	movq	%rdx, -24(%rbp)
	movq	-8(%rbp), %rax
	movq	8(%rax), %rdi
	movq	-16(%rbp), %rsi
	movq	-24(%rbp), %rdx
	callq	MPI_Win_get_name@PLT
	addq	$32, %rsp
	popq	%rbp
	.cfi_def_cfa %rsp, 8
	retq
.Lfunc_end165:
	.size	_ZNK3MPI3Win8Get_nameEPcRi, .Lfunc_end165-_ZNK3MPI3Win8Get_nameEPcRi
	.cfi_endproc
                                        # -- End function
	.section	.text._ZN3MPI3Win8Set_attrEiPKv,"axG",@progbits,_ZN3MPI3Win8Set_attrEiPKv,comdat
	.weak	_ZN3MPI3Win8Set_attrEiPKv       # -- Begin function _ZN3MPI3Win8Set_attrEiPKv
	.p2align	4, 0x90
	.type	_ZN3MPI3Win8Set_attrEiPKv,@function
_ZN3MPI3Win8Set_attrEiPKv:              # @_ZN3MPI3Win8Set_attrEiPKv
	.cfi_startproc
# %bb.0:
	pushq	%rbp
	.cfi_def_cfa_offset 16
	.cfi_offset %rbp, -16
	movq	%rsp, %rbp
	.cfi_def_cfa_register %rbp
	subq	$32, %rsp
	movq	%rdi, -8(%rbp)
	movl	%esi, -12(%rbp)
	movq	%rdx, -24(%rbp)
	movq	-8(%rbp), %rax
	movq	8(%rax), %rdi
	movl	-12(%rbp), %esi
	movq	-24(%rbp), %rdx
	callq	MPI_Win_set_attr@PLT
	addq	$32, %rsp
	popq	%rbp
	.cfi_def_cfa %rsp, 8
	retq
.Lfunc_end166:
	.size	_ZN3MPI3Win8Set_attrEiPKv, .Lfunc_end166-_ZN3MPI3Win8Set_attrEiPKv
	.cfi_endproc
                                        # -- End function
	.section	.text._ZN3MPI3Win8Set_nameEPKc,"axG",@progbits,_ZN3MPI3Win8Set_nameEPKc,comdat
	.weak	_ZN3MPI3Win8Set_nameEPKc        # -- Begin function _ZN3MPI3Win8Set_nameEPKc
	.p2align	4, 0x90
	.type	_ZN3MPI3Win8Set_nameEPKc,@function
_ZN3MPI3Win8Set_nameEPKc:               # @_ZN3MPI3Win8Set_nameEPKc
	.cfi_startproc
# %bb.0:
	pushq	%rbp
	.cfi_def_cfa_offset 16
	.cfi_offset %rbp, -16
	movq	%rsp, %rbp
	.cfi_def_cfa_register %rbp
	subq	$16, %rsp
	movq	%rdi, -8(%rbp)
	movq	%rsi, -16(%rbp)
	movq	-8(%rbp), %rax
	movq	8(%rax), %rdi
	movq	-16(%rbp), %rsi
	callq	MPI_Win_set_name@PLT
	addq	$16, %rsp
	popq	%rbp
	.cfi_def_cfa %rsp, 8
	retq
.Lfunc_end167:
	.size	_ZN3MPI3Win8Set_nameEPKc, .Lfunc_end167-_ZN3MPI3Win8Set_nameEPKc
	.cfi_endproc
                                        # -- End function
	.section	.text._ZN3MPI10ErrhandlerD2Ev,"axG",@progbits,_ZN3MPI10ErrhandlerD2Ev,comdat
	.weak	_ZN3MPI10ErrhandlerD2Ev         # -- Begin function _ZN3MPI10ErrhandlerD2Ev
	.p2align	4, 0x90
	.type	_ZN3MPI10ErrhandlerD2Ev,@function
_ZN3MPI10ErrhandlerD2Ev:                # @_ZN3MPI10ErrhandlerD2Ev
	.cfi_startproc
# %bb.0:
	pushq	%rbp
	.cfi_def_cfa_offset 16
	.cfi_offset %rbp, -16
	movq	%rsp, %rbp
	.cfi_def_cfa_register %rbp
	movq	%rdi, -8(%rbp)
	popq	%rbp
	.cfi_def_cfa %rsp, 8
	retq
.Lfunc_end168:
	.size	_ZN3MPI10ErrhandlerD2Ev, .Lfunc_end168-_ZN3MPI10ErrhandlerD2Ev
	.cfi_endproc
                                        # -- End function
	.section	.text._ZN3MPI10ErrhandlerD0Ev,"axG",@progbits,_ZN3MPI10ErrhandlerD0Ev,comdat
	.weak	_ZN3MPI10ErrhandlerD0Ev         # -- Begin function _ZN3MPI10ErrhandlerD0Ev
	.p2align	4, 0x90
	.type	_ZN3MPI10ErrhandlerD0Ev,@function
_ZN3MPI10ErrhandlerD0Ev:                # @_ZN3MPI10ErrhandlerD0Ev
	.cfi_startproc
# %bb.0:
	pushq	%rbp
	.cfi_def_cfa_offset 16
	.cfi_offset %rbp, -16
	movq	%rsp, %rbp
	.cfi_def_cfa_register %rbp
	subq	$16, %rsp
	movq	%rdi, -8(%rbp)
	movq	-8(%rbp), %rdi
	movq	%rdi, -16(%rbp)                 # 8-byte Spill
	callq	_ZN3MPI10ErrhandlerD2Ev
	movq	-16(%rbp), %rdi                 # 8-byte Reload
	callq	_ZdlPv@PLT
	addq	$16, %rsp
	popq	%rbp
	.cfi_def_cfa %rsp, 8
	retq
.Lfunc_end169:
	.size	_ZN3MPI10ErrhandlerD0Ev, .Lfunc_end169-_ZN3MPI10ErrhandlerD0Ev
	.cfi_endproc
                                        # -- End function
	.section	.text._ZN3MPI9IntracommD2Ev,"axG",@progbits,_ZN3MPI9IntracommD2Ev,comdat
	.weak	_ZN3MPI9IntracommD2Ev           # -- Begin function _ZN3MPI9IntracommD2Ev
	.p2align	4, 0x90
	.type	_ZN3MPI9IntracommD2Ev,@function
_ZN3MPI9IntracommD2Ev:                  # @_ZN3MPI9IntracommD2Ev
	.cfi_startproc
# %bb.0:
	pushq	%rbp
	.cfi_def_cfa_offset 16
	.cfi_offset %rbp, -16
	movq	%rsp, %rbp
	.cfi_def_cfa_register %rbp
	subq	$16, %rsp
	movq	%rdi, -8(%rbp)
	movq	-8(%rbp), %rdi
	callq	_ZN3MPI4CommD2Ev
	addq	$16, %rsp
	popq	%rbp
	.cfi_def_cfa %rsp, 8
	retq
.Lfunc_end170:
	.size	_ZN3MPI9IntracommD2Ev, .Lfunc_end170-_ZN3MPI9IntracommD2Ev
	.cfi_endproc
                                        # -- End function
	.section	.text._ZN3MPI9IntracommD0Ev,"axG",@progbits,_ZN3MPI9IntracommD0Ev,comdat
	.weak	_ZN3MPI9IntracommD0Ev           # -- Begin function _ZN3MPI9IntracommD0Ev
	.p2align	4, 0x90
	.type	_ZN3MPI9IntracommD0Ev,@function
_ZN3MPI9IntracommD0Ev:                  # @_ZN3MPI9IntracommD0Ev
	.cfi_startproc
# %bb.0:
	pushq	%rbp
	.cfi_def_cfa_offset 16
	.cfi_offset %rbp, -16
	movq	%rsp, %rbp
	.cfi_def_cfa_register %rbp
	subq	$16, %rsp
	movq	%rdi, -8(%rbp)
	movq	-8(%rbp), %rdi
	movq	%rdi, -16(%rbp)                 # 8-byte Spill
	callq	_ZN3MPI9IntracommD2Ev
	movq	-16(%rbp), %rdi                 # 8-byte Reload
	callq	_ZdlPv@PLT
	addq	$16, %rsp
	popq	%rbp
	.cfi_def_cfa %rsp, 8
	retq
.Lfunc_end171:
	.size	_ZN3MPI9IntracommD0Ev, .Lfunc_end171-_ZN3MPI9IntracommD0Ev
	.cfi_endproc
                                        # -- End function
	.section	.text._ZNK3MPI9Intracomm5CloneEv,"axG",@progbits,_ZNK3MPI9Intracomm5CloneEv,comdat
	.weak	_ZNK3MPI9Intracomm5CloneEv      # -- Begin function _ZNK3MPI9Intracomm5CloneEv
	.p2align	4, 0x90
	.type	_ZNK3MPI9Intracomm5CloneEv,@function
_ZNK3MPI9Intracomm5CloneEv:             # @_ZNK3MPI9Intracomm5CloneEv
.Lfunc_begin5:
	.cfi_startproc
	.cfi_personality 155, DW.ref.__gxx_personality_v0
	.cfi_lsda 27, .Lexception5
# %bb.0:
	pushq	%rbp
	.cfi_def_cfa_offset 16
	.cfi_offset %rbp, -16
	movq	%rsp, %rbp
	.cfi_def_cfa_register %rbp
	subq	$64, %rsp
	movq	%rdi, -8(%rbp)
	movq	-8(%rbp), %rax
	movq	8(%rax), %rdi
	leaq	-16(%rbp), %rsi
	callq	MPI_Comm_dup@PLT
	movl	$16, %edi
	callq	_Znwm@PLT
	movq	%rax, %rdi
	movq	%rdi, %rax
	movq	%rax, -56(%rbp)                 # 8-byte Spill
	movq	%rdi, %rax
	movq	%rax, -48(%rbp)                 # 8-byte Spill
	movq	-16(%rbp), %rsi
.Ltmp19:
	callq	_ZN3MPI9IntracommC2EP19ompi_communicator_t
.Ltmp20:
	jmp	.LBB172_1
.LBB172_1:
	movq	-48(%rbp), %rax                 # 8-byte Reload
	movq	%rax, -24(%rbp)
	movq	-24(%rbp), %rax
	addq	$64, %rsp
	popq	%rbp
	.cfi_def_cfa %rsp, 8
	retq
.LBB172_2:
	.cfi_def_cfa %rbp, 16
.Ltmp21:
	movq	-56(%rbp), %rdi                 # 8-byte Reload
	movq	%rax, %rcx
	movl	%edx, %eax
	movq	%rcx, -32(%rbp)
	movl	%eax, -36(%rbp)
	callq	_ZdlPv@PLT
# %bb.3:
	movq	-32(%rbp), %rdi
	callq	_Unwind_Resume@PLT
.Lfunc_end172:
	.size	_ZNK3MPI9Intracomm5CloneEv, .Lfunc_end172-_ZNK3MPI9Intracomm5CloneEv
	.cfi_endproc
	.section	.gcc_except_table._ZNK3MPI9Intracomm5CloneEv,"aG",@progbits,_ZNK3MPI9Intracomm5CloneEv,comdat
	.p2align	2
GCC_except_table172:
.Lexception5:
	.byte	255                             # @LPStart Encoding = omit
	.byte	255                             # @TType Encoding = omit
	.byte	1                               # Call site Encoding = uleb128
	.uleb128 .Lcst_end5-.Lcst_begin5
.Lcst_begin5:
	.uleb128 .Lfunc_begin5-.Lfunc_begin5    # >> Call Site 1 <<
	.uleb128 .Ltmp19-.Lfunc_begin5          #   Call between .Lfunc_begin5 and .Ltmp19
	.byte	0                               #     has no landing pad
	.byte	0                               #   On action: cleanup
	.uleb128 .Ltmp19-.Lfunc_begin5          # >> Call Site 2 <<
	.uleb128 .Ltmp20-.Ltmp19                #   Call between .Ltmp19 and .Ltmp20
	.uleb128 .Ltmp21-.Lfunc_begin5          #     jumps to .Ltmp21
	.byte	0                               #   On action: cleanup
	.uleb128 .Ltmp20-.Lfunc_begin5          # >> Call Site 3 <<
	.uleb128 .Lfunc_end172-.Ltmp20          #   Call between .Ltmp20 and .Lfunc_end172
	.byte	0                               #     has no landing pad
	.byte	0                               #   On action: cleanup
.Lcst_end5:
	.p2align	2
                                        # -- End function
	.section	.text._ZNK3MPI9Intracomm6ExscanEPKvPviRKNS_8DatatypeERKNS_2OpE,"axG",@progbits,_ZNK3MPI9Intracomm6ExscanEPKvPviRKNS_8DatatypeERKNS_2OpE,comdat
	.weak	_ZNK3MPI9Intracomm6ExscanEPKvPviRKNS_8DatatypeERKNS_2OpE # -- Begin function _ZNK3MPI9Intracomm6ExscanEPKvPviRKNS_8DatatypeERKNS_2OpE
	.p2align	4, 0x90
	.type	_ZNK3MPI9Intracomm6ExscanEPKvPviRKNS_8DatatypeERKNS_2OpE,@function
_ZNK3MPI9Intracomm6ExscanEPKvPviRKNS_8DatatypeERKNS_2OpE: # @_ZNK3MPI9Intracomm6ExscanEPKvPviRKNS_8DatatypeERKNS_2OpE
	.cfi_startproc
# %bb.0:
	pushq	%rbp
	.cfi_def_cfa_offset 16
	.cfi_offset %rbp, -16
	movq	%rsp, %rbp
	.cfi_def_cfa_register %rbp
	subq	$96, %rsp
	movq	%rdi, -8(%rbp)
	movq	%rsi, -16(%rbp)
	movq	%rdx, -24(%rbp)
	movl	%ecx, -28(%rbp)
	movq	%r8, -40(%rbp)
	movq	%r9, -48(%rbp)
	movq	-8(%rbp), %rax
	movq	%rax, -56(%rbp)                 # 8-byte Spill
	movq	-16(%rbp), %rax
	movq	%rax, -88(%rbp)                 # 8-byte Spill
	movq	-24(%rbp), %rax
	movq	%rax, -80(%rbp)                 # 8-byte Spill
	movl	-28(%rbp), %eax
	movl	%eax, -68(%rbp)                 # 4-byte Spill
	movq	-40(%rbp), %rdi
	callq	_ZNK3MPI8DatatypecvP15ompi_datatype_tEv
	movq	%rax, -64(%rbp)                 # 8-byte Spill
	movq	-48(%rbp), %rdi
	callq	_ZNK3MPI2OpcvP9ompi_op_tEv
	movq	-88(%rbp), %rdi                 # 8-byte Reload
	movq	-80(%rbp), %rsi                 # 8-byte Reload
	movl	-68(%rbp), %edx                 # 4-byte Reload
	movq	-64(%rbp), %rcx                 # 8-byte Reload
	movq	%rax, %r8
	movq	-56(%rbp), %rax                 # 8-byte Reload
	movq	8(%rax), %r9
	callq	MPI_Exscan@PLT
	addq	$96, %rsp
	popq	%rbp
	.cfi_def_cfa %rsp, 8
	retq
.Lfunc_end173:
	.size	_ZNK3MPI9Intracomm6ExscanEPKvPviRKNS_8DatatypeERKNS_2OpE, .Lfunc_end173-_ZNK3MPI9Intracomm6ExscanEPKvPviRKNS_8DatatypeERKNS_2OpE
	.cfi_endproc
                                        # -- End function
	.section	.text._ZNK3MPI9Intracomm6CreateERKNS_5GroupE,"axG",@progbits,_ZNK3MPI9Intracomm6CreateERKNS_5GroupE,comdat
	.weak	_ZNK3MPI9Intracomm6CreateERKNS_5GroupE # -- Begin function _ZNK3MPI9Intracomm6CreateERKNS_5GroupE
	.p2align	4, 0x90
	.type	_ZNK3MPI9Intracomm6CreateERKNS_5GroupE,@function
_ZNK3MPI9Intracomm6CreateERKNS_5GroupE: # @_ZNK3MPI9Intracomm6CreateERKNS_5GroupE
	.cfi_startproc
# %bb.0:
	pushq	%rbp
	.cfi_def_cfa_offset 16
	.cfi_offset %rbp, -16
	movq	%rsp, %rbp
	.cfi_def_cfa_register %rbp
	subq	$64, %rsp
	movq	%rdi, -48(%rbp)                 # 8-byte Spill
	movq	%rdi, %rax
	movq	%rax, -40(%rbp)                 # 8-byte Spill
	movq	%rdi, -8(%rbp)
	movq	%rsi, -16(%rbp)
	movq	%rdx, -24(%rbp)
	movq	-16(%rbp), %rax
	movq	8(%rax), %rax
	movq	%rax, -56(%rbp)                 # 8-byte Spill
	movq	-24(%rbp), %rdi
	callq	_ZNK3MPI5GroupcvP12ompi_group_tEv
	movq	-56(%rbp), %rdi                 # 8-byte Reload
	movq	%rax, %rsi
	leaq	-32(%rbp), %rdx
	callq	MPI_Comm_create@PLT
	movq	-48(%rbp), %rdi                 # 8-byte Reload
	movq	-32(%rbp), %rsi
	callq	_ZN3MPI9IntracommC2EP19ompi_communicator_t
	movq	-40(%rbp), %rax                 # 8-byte Reload
	addq	$64, %rsp
	popq	%rbp
	.cfi_def_cfa %rsp, 8
	retq
.Lfunc_end174:
	.size	_ZNK3MPI9Intracomm6CreateERKNS_5GroupE, .Lfunc_end174-_ZNK3MPI9Intracomm6CreateERKNS_5GroupE
	.cfi_endproc
                                        # -- End function
	.section	.text._ZNK3MPI9Intracomm5SplitEii,"axG",@progbits,_ZNK3MPI9Intracomm5SplitEii,comdat
	.weak	_ZNK3MPI9Intracomm5SplitEii     # -- Begin function _ZNK3MPI9Intracomm5SplitEii
	.p2align	4, 0x90
	.type	_ZNK3MPI9Intracomm5SplitEii,@function
_ZNK3MPI9Intracomm5SplitEii:            # @_ZNK3MPI9Intracomm5SplitEii
	.cfi_startproc
# %bb.0:
	pushq	%rbp
	.cfi_def_cfa_offset 16
	.cfi_offset %rbp, -16
	movq	%rsp, %rbp
	.cfi_def_cfa_register %rbp
	subq	$48, %rsp
	movq	%rdi, -48(%rbp)                 # 8-byte Spill
	movq	%rdi, %rax
	movq	%rax, -40(%rbp)                 # 8-byte Spill
	movq	%rdi, -8(%rbp)
	movq	%rsi, -16(%rbp)
	movl	%edx, -20(%rbp)
	movl	%ecx, -24(%rbp)
	movq	-16(%rbp), %rax
	movq	8(%rax), %rdi
	movl	-20(%rbp), %esi
	movl	-24(%rbp), %edx
	leaq	-32(%rbp), %rcx
	callq	MPI_Comm_split@PLT
	movq	-48(%rbp), %rdi                 # 8-byte Reload
	movq	-32(%rbp), %rsi
	callq	_ZN3MPI9IntracommC2EP19ompi_communicator_t
	movq	-40(%rbp), %rax                 # 8-byte Reload
	addq	$48, %rsp
	popq	%rbp
	.cfi_def_cfa %rsp, 8
	retq
.Lfunc_end175:
	.size	_ZNK3MPI9Intracomm5SplitEii, .Lfunc_end175-_ZNK3MPI9Intracomm5SplitEii
	.cfi_endproc
                                        # -- End function
	.section	.text._ZNK3MPI9Intracomm16Create_intercommEiRKNS_4CommEii,"axG",@progbits,_ZNK3MPI9Intracomm16Create_intercommEiRKNS_4CommEii,comdat
	.weak	_ZNK3MPI9Intracomm16Create_intercommEiRKNS_4CommEii # -- Begin function _ZNK3MPI9Intracomm16Create_intercommEiRKNS_4CommEii
	.p2align	4, 0x90
	.type	_ZNK3MPI9Intracomm16Create_intercommEiRKNS_4CommEii,@function
_ZNK3MPI9Intracomm16Create_intercommEiRKNS_4CommEii: # @_ZNK3MPI9Intracomm16Create_intercommEiRKNS_4CommEii
	.cfi_startproc
# %bb.0:
	pushq	%rbp
	.cfi_def_cfa_offset 16
	.cfi_offset %rbp, -16
	movq	%rsp, %rbp
	.cfi_def_cfa_register %rbp
	subq	$80, %rsp
	movq	%rdi, -64(%rbp)                 # 8-byte Spill
	movq	%rdi, %rax
	movq	%rax, -56(%rbp)                 # 8-byte Spill
	movq	%rdi, -8(%rbp)
	movq	%rsi, -16(%rbp)
	movl	%edx, -20(%rbp)
	movq	%rcx, -32(%rbp)
	movl	%r8d, -36(%rbp)
	movl	%r9d, -40(%rbp)
	movq	-16(%rbp), %rax
	movq	8(%rax), %rax
	movq	%rax, -80(%rbp)                 # 8-byte Spill
	movl	-20(%rbp), %eax
	movl	%eax, -68(%rbp)                 # 4-byte Spill
	movq	-32(%rbp), %rdi
	callq	_ZNK3MPI9Comm_NullcvP19ompi_communicator_tEv
	movq	-80(%rbp), %rdi                 # 8-byte Reload
	movl	-68(%rbp), %esi                 # 4-byte Reload
	movq	%rax, %rdx
	movl	-36(%rbp), %ecx
	movl	-40(%rbp), %r8d
	leaq	-48(%rbp), %r9
	callq	MPI_Intercomm_create@PLT
	movq	-64(%rbp), %rdi                 # 8-byte Reload
	movq	-48(%rbp), %rsi
	callq	_ZN3MPI9IntercommC2EP19ompi_communicator_t
	movq	-56(%rbp), %rax                 # 8-byte Reload
	addq	$80, %rsp
	popq	%rbp
	.cfi_def_cfa %rsp, 8
	retq
.Lfunc_end176:
	.size	_ZNK3MPI9Intracomm16Create_intercommEiRKNS_4CommEii, .Lfunc_end176-_ZNK3MPI9Intracomm16Create_intercommEiRKNS_4CommEii
	.cfi_endproc
                                        # -- End function
	.section	.text._ZNK3MPI9Intracomm11Create_cartEiPKiPKbb,"axG",@progbits,_ZNK3MPI9Intracomm11Create_cartEiPKiPKbb,comdat
	.weak	_ZNK3MPI9Intracomm11Create_cartEiPKiPKbb # -- Begin function _ZNK3MPI9Intracomm11Create_cartEiPKiPKbb
	.p2align	4, 0x90
	.type	_ZNK3MPI9Intracomm11Create_cartEiPKiPKbb,@function
_ZNK3MPI9Intracomm11Create_cartEiPKiPKbb: # @_ZNK3MPI9Intracomm11Create_cartEiPKiPKbb
	.cfi_startproc
# %bb.0:
	pushq	%rbp
	.cfi_def_cfa_offset 16
	.cfi_offset %rbp, -16
	movq	%rsp, %rbp
	.cfi_def_cfa_register %rbp
	subq	$112, %rsp
	movq	%rdi, -96(%rbp)                 # 8-byte Spill
	movb	%r9b, %al
	movq	%rdi, %r9
	movq	%r9, -88(%rbp)                  # 8-byte Spill
	movq	%rdi, -8(%rbp)
	movq	%rsi, -16(%rbp)
	movl	%edx, -20(%rbp)
	movq	%rcx, -32(%rbp)
	movq	%r8, -40(%rbp)
	andb	$1, %al
	movb	%al, -41(%rbp)
	movq	-16(%rbp), %rax
	movq	%rax, -80(%rbp)                 # 8-byte Spill
	movslq	-20(%rbp), %rax
	movl	$4, %ecx
	mulq	%rcx
	movq	%rax, %rdi
	seto	%al
	movq	$-1, %rax
	cmovoq	%rax, %rdi
	callq	_Znam@PLT
	movq	%rax, -56(%rbp)
	movl	$0, -60(%rbp)
.LBB177_1:                              # =>This Inner Loop Header: Depth=1
	movl	-60(%rbp), %eax
	cmpl	-20(%rbp), %eax
	jge	.LBB177_4
# %bb.2:                                #   in Loop: Header=BB177_1 Depth=1
	movq	-40(%rbp), %rax
	movslq	-60(%rbp), %rcx
	movb	(%rax,%rcx), %al
	andb	$1, %al
	movzbl	%al, %edx
	movq	-56(%rbp), %rax
	movslq	-60(%rbp), %rcx
	movl	%edx, (%rax,%rcx,4)
# %bb.3:                                #   in Loop: Header=BB177_1 Depth=1
	movl	-60(%rbp), %eax
	addl	$1, %eax
	movl	%eax, -60(%rbp)
	jmp	.LBB177_1
.LBB177_4:
	movq	-80(%rbp), %rax                 # 8-byte Reload
	movq	8(%rax), %rdi
	movl	-20(%rbp), %esi
	movq	-32(%rbp), %rdx
	movq	-56(%rbp), %rcx
	movb	-41(%rbp), %al
	andb	$1, %al
	movzbl	%al, %r8d
	leaq	-72(%rbp), %r9
	callq	MPI_Cart_create@PLT
	movq	-56(%rbp), %rax
	movq	%rax, -104(%rbp)                # 8-byte Spill
	cmpq	$0, %rax
	je	.LBB177_6
# %bb.5:
	movq	-104(%rbp), %rdi                # 8-byte Reload
	callq	_ZdaPv@PLT
.LBB177_6:
	movq	-96(%rbp), %rdi                 # 8-byte Reload
	leaq	-72(%rbp), %rsi
	callq	_ZN3MPI8CartcommC2ERKP19ompi_communicator_t
	movq	-88(%rbp), %rax                 # 8-byte Reload
	addq	$112, %rsp
	popq	%rbp
	.cfi_def_cfa %rsp, 8
	retq
.Lfunc_end177:
